Certificate:
    Data:
        Version: 3 (0x2)
        Serial Number:
            18:b7:4a:6d:35:5d:fb:72:d2:d8:ae:fb:b3:2a:9d:1e
    Signature Algorithm: sha256WithRSAEncryption
        Issuer: C=US, O=Edgewood College, CN=Root CA
        Validity
            Not Before: Nov  8 17:54:46 2016 GMT
            Not After : Nov  6 17:54:46 2026 GMT
        Subject: C=US, O=Edgewood College, CN=Root CA
        Subject Public Key Info:
            Public Key Algorithm: rsaEncryption
                Public-Key: (4096 bit)
                Modulus:
                    00:a4:ae:a1:3f:15:77:37:d2:e9:a8:45:a5:a7:9b:
                    e4:08:c4:fd:96:04:cb:05:3a:0a:87:cb:c5:c7:2e:
                    84:b3:dd:e1:d7:81:1e:02:f5:64:94:7c:03:09:58:
                    c8:65:d0:5b:0f:ba:0f:65:7a:77:3f:d4:f1:8a:1d:
                    41:f5:14:f9:a6:c1:19:18:80:fc:01:6e:29:86:21:
                    57:a5:e4:f3:88:bd:eb:c1:7f:46:8e:e7:6b:ba:e3:
                    2f:7b:27:f0:57:ab:6e:07:8c:c7:0d:ce:30:04:06:
                    bc:cb:4c:4a:df:a8:c3:8f:ea:fa:4c:88:c0:e5:6a:
                    d5:e4:7b:55:15:9b:cb:ad:a1:1d:9c:c1:01:f3:a1:
                    ff:1d:5b:c1:52:de:ea:5f:b9:4d:77:00:c6:ab:66:
                    c4:a2:b4:46:3b:a3:6f:8a:d6:19:32:59:b9:f4:0c:
                    9d:21:41:a3:90:41:10:b4:54:06:11:6a:f4:5b:2c:
                    8e:13:b5:e9:d5:0a:82:5d:58:b5:7d:98:c2:83:f8:
                    6d:46:91:3e:e5:0d:d8:5f:79:0d:33:19:9c:dc:dc:
                    32:29:0e:06:e8:b0:68:98:82:3b:96:17:5f:ea:c5:
                    b9:02:36:51:5c:e3:3f:a8:1e:b1:58:77:fe:1b:ce:
                    ae:93:e9:5c:65:9d:b0:3f:4e:c3:dd:dc:e8:8a:96:
                    1e:e6:ad:3b:fe:66:11:7d:08:fc:ea:5a:b3:11:b0:
                    6d:27:a9:35:ae:96:ab:9a:2a:eb:2e:ad:c5:b7:45:
                    c1:17:12:99:17:4a:ae:0e:93:63:0b:ec:34:20:e0:
                    ba:87:34:4f:4b:b3:c3:84:fb:a2:99:d7:39:e2:e9:
                    7d:55:94:66:4b:90:07:f8:7f:02:eb:7f:ee:4f:79:
                    68:1f:56:51:d0:4c:13:a0:f8:f8:e6:ae:b9:53:fc:
                    8a:4a:2a:b8:4f:b1:cc:0c:31:8e:10:9a:17:7a:a2:
                    02:b6:81:97:a4:ab:40:34:46:ea:46:37:e1:b8:d6:
                    27:b4:22:85:41:1e:90:5a:09:d6:8e:d2:f9:d1:08:
                    58:11:54:aa:05:b3:c9:b5:01:1a:25:8b:d6:2b:5a:
                    a8:52:36:f2:3f:82:af:d0:40:c8:ca:69:74:57:14:
                    5b:f9:ee:25:cd:40:4c:ce:1a:5d:65:03:3c:fb:98:
                    19:f0:24:04:0d:2b:1d:7c:36:a0:d6:0c:cd:51:5d:
                    6c:c1:0b:54:c3:ba:bd:a8:c4:34:66:38:aa:e8:99:
                    9f:e7:4a:55:81:df:45:ce:28:b0:58:77:cf:68:80:
                    07:14:f0:af:39:56:75:89:c4:a8:81:87:56:6d:bf:
                    9f:6a:4a:a6:ee:8d:e7:09:5a:dc:b2:ac:44:5e:f1:
                    58:ae:7f
                Exponent: 65537 (0x10001)
        X509v3 extensions:
            X509v3 Basic Constraints: critical
                CA:TRUE
            X509v3 Key Usage: critical
                Certificate Sign, CRL Sign
            X509v3 Subject Key Identifier: 
                B0:AF:8E:F5:A1:06:C7:B3:90:48:B4:BC:CF:70:20:AF:33:B4:25:14
    Signature Algorithm: sha256WithRSAEncryption
         13:ee:ca:b1:7c:37:12:fa:19:3f:dd:a7:d6:fb:4c:bb:59:8e:
         43:23:cf:20:0d:21:7a:ef:c5:1f:4b:8c:1f:be:e9:88:6b:80:
         0f:04:17:73:e6:9a:f0:89:39:f8:f8:fa:34:0d:75:11:a1:58:
         a0:0e:1c:9a:8f:d4:a3:57:53:00:36:a8:6d:2f:db:90:37:03:
         82:a0:5b:e4:44:75:1e:b5:97:6d:ca:62:ec:f0:7a:9c:93:ba:
         32:e2:4e:61:87:2d:e8:46:64:96:73:d2:40:ef:d3:cf:26:7e:
         ec:ac:ad:8a:83:c6:7e:6b:75:49:5a:71:47:08:5e:4c:ef:48:
         65:0c:fc:c6:c9:2a:d8:9e:66:68:87:2b:38:65:7d:52:91:94:
         7e:ce:e4:98:1c:60:42:19:6d:a1:fe:4e:af:8d:37:e6:c2:b4:
         08:1c:8e:dd:a5:be:e3:34:87:2e:92:38:29:b5:00:06:8c:f0:
         92:d2:bc:81:aa:a9:de:2d:39:a1:e7:ee:64:94:c9:77:31:9f:
         66:b1:66:90:d7:79:5a:27:b0:95:dd:e7:79:b1:a3:76:82:64:
         64:c8:5f:83:aa:28:b8:08:8e:7f:ca:fc:e6:f9:2a:ce:9d:97:
         d7:65:83:e0:e0:12:95:f8:77:4b:d5:08:b5:d9:55:83:05:be:
         79:cc:42:17:db:b5:f7:25:6e:ee:07:5c:31:e7:4b:84:ba:4d:
         1c:48:a7:9e:11:eb:ce:fd:4c:f1:8a:2c:74:b6:ea:f1:37:d1:
         f4:7c:a9:21:b1:cd:bd:e9:ed:c4:63:09:7c:0f:d4:3f:ab:22:
         c7:3c:98:63:08:fe:b5:78:3a:40:cb:e1:cd:67:b7:56:83:20:
         6b:ed:e5:cf:5b:42:02:80:4a:58:42:d1:a0:0b:37:2f:5d:38:
         1f:fe:59:43:ac:14:9f:37:c6:74:14:e8:19:af:f9:56:a1:8a:
         e8:44:41:4e:6b:b2:d0:0e:c2:d3:4f:63:c1:03:8c:a1:cc:92:
         a0:4f:1f:e9:2d:a1:44:58:6e:93:37:f6:35:dd:32:36:c9:c4:
         dd:1e:66:29:e0:2a:5b:08:54:7f:01:95:20:5b:ed:79:7c:5f:
         82:d3:4e:12:41:b1:21:2a:ac:4a:0a:85:11:c6:bb:7d:7c:2c:
         b0:ea:3d:c8:93:ab:be:06:88:a4:08:99:4d:03:fa:6c:e7:bd:
         7f:f9:09:96:8e:f8:9d:0d:de:68:fe:b5:8e:d4:2e:63:0e:2e:
         08:df:43:6c:a4:bf:3c:9d:24:7b:1a:6b:61:9e:50:35:69:08:
         eb:ca:14:28:9d:d1:23:ec:e3:55:4d:3c:5d:df:35:07:9d:aa:
         35:ec:b3:4c:15:bc:56:76
-----BEGIN CERTIFICATE-----
MIIFQDCCAyigAwIBAgIQGLdKbTVd+3LS2K77syqdHjANBgkqhkiG9w0BAQsFADA6
MQswCQYDVQQGEwJVUzEZMBcGA1UECgwQRWRnZXdvb2QgQ29sbGVnZTEQMA4GA1UE
AwwHUm9vdCBDQTAeFw0xNjExMDgxNzU0NDZaFw0yNjExMDYxNzU0NDZaMDoxCzAJ
BgNVBAYTAlVTMRkwFwYDVQQKDBBFZGdld29vZCBDb2xsZWdlMRAwDgYDVQQDDAdS
b290IENBMIICIjANBgkqhkiG9w0BAQEFAAOCAg8AMIICCgKCAgEApK6hPxV3N9Lp
qEWlp5vkCMT9lgTLBToKh8vFxy6Es93h14EeAvVklHwDCVjIZdBbD7oPZXp3P9Tx
ih1B9RT5psEZGID8AW4phiFXpeTziL3rwX9GjudruuMveyfwV6tuB4zHDc4wBAa8
y0xK36jDj+r6TIjA5WrV5HtVFZvLraEdnMEB86H/HVvBUt7qX7lNdwDGq2bEorRG
O6NvitYZMlm59AydIUGjkEEQtFQGEWr0WyyOE7Xp1QqCXVi1fZjCg/htRpE+5Q3Y
X3kNMxmc3NwyKQ4G6LBomII7lhdf6sW5AjZRXOM/qB6xWHf+G86uk+lcZZ2wP07D
3dzoipYe5q07/mYRfQj86lqzEbBtJ6k1rparmirrLq3Ft0XBFxKZF0quDpNjC+w0
IOC6hzRPS7PDhPuimdc54ul9VZRmS5AH+H8C63/uT3loH1ZR0EwToPj45q65U/yK
Siq4T7HMDDGOEJoXeqICtoGXpKtANEbqRjfhuNYntCKFQR6QWgnWjtL50QhYEVSq
BbPJtQEaJYvWK1qoUjbyP4Kv0EDIyml0VxRb+e4lzUBMzhpdZQM8+5gZ8CQEDSsd
fDag1gzNUV1swQtUw7q9qMQ0Zjiq6Jmf50pVgd9FziiwWHfPaIAHFPCvOVZ1icSo
gYdWbb+fakqm7o3nCVrcsqxEXvFYrn8CAwEAAaNCMEAwDwYDVR0TAQH/BAUwAwEB
/zAOBgNVHQ8BAf8EBAMCAQYwHQYDVR0OBBYEFLCvjvWhBsezkEi0vM9wIK8ztCUU
MA0GCSqGSIb3DQEBCwUAA4ICAQAT7sqxfDcS+hk/3afW+0y7WY5DI88gDSF678Uf
S4wfvumIa4APBBdz5prwiTn4+Po0DXURoVigDhyaj9SjV1MANqhtL9uQNwOCoFvk
RHUetZdtymLs8Hqck7oy4k5hhy3oRmSWc9JA79PPJn7srK2Kg8Z+a3VJWnFHCF5M
70hlDPzGySrYnmZohys4ZX1SkZR+zuSYHGBCGW2h/k6vjTfmwrQIHI7dpb7jNIcu
kjgptQAGjPCS0ryBqqneLTmh5+5klMl3MZ9msWaQ13laJ7CV3ed5saN2gmRkyF+D
qii4CI5/yvzm+SrOnZfXZYPg4BKV+HdL1Qi12VWDBb55zEIX27X3JW7uB1wx50uE
uk0cSKeeEevO/Uzxiix0turxN9H0fKkhsc296e3EYwl8D9Q/qyLHPJhjCP61eDpA
y+HNZ7dWgyBr7eXPW0ICgEpYQtGgCzcvXTgf/llDrBSfN8Z0FOgZr/lWoYroREFO
a7LQDsLTT2PBA4yhzJKgTx/pLaFEWG6TN/Y13TI2ycTdHmYp4CpbCFR/AZUgW+15
fF+C004SQbEhKqxKCoURxrt9fCyw6j3Ik6u+BoikCJlNA/ps571/+QmWjvidDd5o
/rWO1C5jDi4I30NspL88nSR7GmthnlA1aQjryhQondEj7ONVTTxd3zUHnao17LNM
FbxWdg==
-----END CERTIFICATE-----
