Certificate:
    Data:
        Version: 3 (0x2)
        Serial Number:
            18:b7:4a:6d:35:5d:fb:72:d2:d8:ae:fb:b3:2a:9d:21
    Signature Algorithm: sha256WithRSAEncryption
        Issuer: C=US, O=Edgewood College, CN=Root CA
        Validity
            Not Before: Nov  8 21:42:14 2016 GMT
            Not After : Nov  6 21:42:14 2026 GMT
        Subject: C=US, O=Edgewood College, CN=Sub CA
        Subject Public Key Info:
            Public Key Algorithm: rsaEncryption
                Public-Key: (4096 bit)
                Modulus:
                    00:dc:43:7a:e7:7a:b8:cf:1c:dc:35:81:0d:24:09:
                    8a:cc:be:1e:84:3a:1e:97:bc:61:75:a5:fb:a2:bb:
                    c1:fe:8c:8f:72:7b:64:e1:ef:ee:d9:c7:9d:9f:33:
                    7c:32:37:81:b8:bc:04:ac:35:be:54:7d:f9:15:c8:
                    6e:da:28:77:6d:51:ce:ba:ce:ce:7f:26:ab:45:0e:
                    2b:ca:ac:2b:a7:b2:00:5d:ab:c4:6e:7d:e6:4a:f9:
                    45:15:24:92:cb:23:90:76:35:20:d2:4c:ff:5b:6e:
                    34:23:fc:c1:cc:c7:a2:69:61:76:cb:21:06:cf:ea:
                    27:31:81:49:8e:dd:fc:e1:37:a8:46:d0:7e:04:9d:
                    45:e4:80:30:1c:fc:10:e0:c8:6e:6c:f9:1e:99:a8:
                    74:84:5b:0a:f9:f2:5d:92:07:19:f7:7b:ff:e4:61:
                    05:6e:8a:36:e5:c6:9c:59:a2:46:d9:2b:43:36:d6:
                    39:68:d1:31:54:74:6c:9e:76:27:f8:28:0c:60:d2:
                    55:af:72:f8:81:a7:21:21:ac:73:c4:9d:99:5e:34:
                    75:95:33:ad:69:23:3e:f1:d2:c9:79:ef:60:5c:40:
                    05:2a:12:4a:3e:66:28:4d:ac:05:da:01:97:57:60:
                    94:d1:75:32:1f:d5:ed:f8:e9:d5:a3:e5:fe:83:47:
                    2d:c2:e6:1f:1c:de:ab:95:2d:b8:08:a0:a4:8c:43:
                    70:6b:7f:68:68:16:78:18:6d:b3:db:74:06:d5:6f:
                    7a:54:8b:1c:b7:f2:4a:88:64:f2:73:4c:97:2c:44:
                    2e:50:49:08:f1:8a:bd:59:3f:ee:1c:9d:29:28:54:
                    99:11:8d:25:ac:df:d6:cf:ca:84:83:3b:71:89:bb:
                    52:c3:62:d6:0b:b4:b4:11:26:e3:55:f0:14:5f:a3:
                    fc:6c:02:08:52:c4:ff:fc:65:d5:f3:32:bb:e8:b9:
                    42:1a:03:01:fb:10:bf:05:4e:27:fc:65:01:d1:28:
                    66:20:e7:b5:1e:99:b6:dc:57:ee:e2:c4:63:51:64:
                    07:ee:7a:2a:a4:c5:87:0c:35:78:46:c5:05:43:17:
                    ee:11:7f:85:85:bf:b7:33:ab:26:69:ad:bd:56:73:
                    e1:07:8f:a8:de:1b:48:7b:57:02:31:ff:66:dc:69:
                    f7:fa:74:45:84:c4:57:d2:3e:92:bf:7a:eb:f9:f6:
                    2b:c1:3a:61:bc:9f:97:c4:7f:1b:60:2f:60:c3:58:
                    71:07:7b:9b:7f:9c:1c:9c:3e:ee:2c:b6:3d:02:00:
                    a0:89:4a:01:ab:7a:88:c1:77:ba:99:2e:51:11:f3:
                    40:c1:c0:38:24:94:38:d4:e2:51:e4:1c:f0:35:06:
                    29:bf:9b
                Exponent: 65537 (0x10001)
        X509v3 extensions:
            Authority Information Access: 
                CA Issuers - URI:http://root_ca.edgewood.edu/root_ca.crt
                OCSP - URI:http://ocsp.root_ca.edgewood.edu:9080

            X509v3 Authority Key Identifier: 
                keyid:B0:AF:8E:F5:A1:06:C7:B3:90:48:B4:BC:CF:70:20:AF:33:B4:25:14

            X509v3 Basic Constraints: critical
                CA:TRUE, pathlen:0
            X509v3 CRL Distribution Points: 

                Full Name:
                  URI:http://root_ca.edgewood.edu/root_ca.crl

            X509v3 Extended Key Usage: 
                TLS Web Client Authentication, TLS Web Server Authentication
            X509v3 Key Usage: critical
                Certificate Sign, CRL Sign
            X509v3 Name Constraints: 
                Permitted:
                  DNS:edgewood.edu
                Excluded:
                  IP:0.0.0.0/0.0.0.0
                  IP:0:0:0:0:0:0:0:0/0:0:0:0:0:0:0:0

            X509v3 Subject Key Identifier: 
                5B:7D:9B:AF:28:4B:B2:09:DA:A4:EC:88:6C:78:74:83:5C:C0:E2:FA
    Signature Algorithm: sha256WithRSAEncryption
         59:24:f8:63:83:78:cb:80:68:b4:11:65:b7:57:01:3d:04:37:
         ee:f0:da:f3:cc:90:8d:4f:ad:f4:87:77:ad:14:89:6d:13:c6:
         24:4e:7f:26:c7:f4:0f:ad:0e:51:03:53:d3:5f:43:b3:6d:b5:
         f5:80:05:0f:34:93:aa:d1:7e:71:90:b7:a5:f7:9a:23:0f:73:
         c9:c4:17:33:31:5a:ee:03:bd:92:1e:05:b4:3a:85:50:ca:4d:
         4b:1e:3f:3e:40:c1:7f:e5:ad:9f:be:da:3b:95:25:1f:b7:83:
         db:4c:54:ba:9d:1e:17:75:e3:3e:bf:4c:94:6d:12:d0:4d:b5:
         fa:f1:ea:53:de:aa:2f:b4:af:cc:22:3d:98:57:19:b9:73:dd:
         7e:27:0c:41:51:83:e9:b3:b7:b4:5f:f0:54:6d:09:ca:ef:a5:
         fb:a2:7d:12:91:59:74:c9:22:3e:54:2a:92:0d:99:ee:06:e8:
         04:2d:8b:22:3a:0f:a1:c6:7f:ac:d1:e5:b2:95:04:08:fa:80:
         0f:f4:7a:44:7f:2a:cd:51:d5:41:a0:2d:f5:58:97:08:04:44:
         02:91:45:44:98:3a:ac:35:41:4d:04:e2:66:d6:4d:94:f4:84:
         6a:96:a5:7c:21:0a:b5:1d:75:ef:d2:d9:c7:0f:2c:27:ea:df:
         2f:e7:7f:87:da:d8:14:1e:1d:2c:80:df:61:25:ae:fe:69:e2:
         28:03:c7:13:ca:20:6d:89:22:e2:91:60:ba:ed:62:32:47:0b:
         fe:f5:e6:b8:b4:1c:3f:c0:8c:ff:50:93:10:90:4f:af:2b:4c:
         e9:1a:aa:19:73:6d:86:d5:eb:cb:b3:42:b4:ed:c1:01:56:dc:
         7b:6e:15:2a:06:5c:9c:f9:4c:47:ee:0b:b6:15:56:a5:1b:fe:
         f3:1a:06:21:0e:66:60:92:8f:df:d7:ba:06:b4:9a:7f:ec:41:
         a3:c7:b2:2b:4e:fa:6f:66:2c:2f:4e:fc:b8:40:f2:66:67:42:
         ee:4e:a4:37:0f:d6:1e:f0:51:4b:e7:ef:01:63:4d:3b:d0:1b:
         76:c8:97:05:7d:81:49:29:bb:5d:b5:82:c9:64:0c:6b:ee:55:
         a1:0c:ab:7d:d8:70:63:6b:56:44:bb:3f:b8:fc:e5:a6:ec:f4:
         72:36:f6:02:e6:6a:0a:b2:b4:88:e4:d0:7c:9c:98:77:be:63:
         f0:e0:ff:7c:28:30:24:18:77:7d:d5:87:d9:96:17:33:58:64:
         33:20:a1:68:ad:8c:d1:f9:6c:91:2d:cf:1d:a2:69:4d:2f:5d:
         cb:36:8c:74:a3:14:67:6e:6d:7a:3b:98:25:77:1b:d0:02:e6:
         a2:f3:bb:f7:6d:71:d3:ad
-----BEGIN CERTIFICATE-----
MIIGhzCCBG+gAwIBAgIQGLdKbTVd+3LS2K77syqdITANBgkqhkiG9w0BAQsFADA6
MQswCQYDVQQGEwJVUzEZMBcGA1UECgwQRWRnZXdvb2QgQ29sbGVnZTEQMA4GA1UE
AwwHUm9vdCBDQTAeFw0xNjExMDgyMTQyMTRaFw0yNjExMDYyMTQyMTRaMDkxCzAJ
BgNVBAYTAlVTMRkwFwYDVQQKDBBFZGdld29vZCBDb2xsZWdlMQ8wDQYDVQQDDAZT
dWIgQ0EwggIiMA0GCSqGSIb3DQEBAQUAA4ICDwAwggIKAoICAQDcQ3rnerjPHNw1
gQ0kCYrMvh6EOh6XvGF1pfuiu8H+jI9ye2Th7+7Zx52fM3wyN4G4vASsNb5UffkV
yG7aKHdtUc66zs5/JqtFDivKrCunsgBdq8RufeZK+UUVJJLLI5B2NSDSTP9bbjQj
/MHMx6JpYXbLIQbP6icxgUmO3fzhN6hG0H4EnUXkgDAc/BDgyG5s+R6ZqHSEWwr5
8l2SBxn3e//kYQVuijblxpxZokbZK0M21jlo0TFUdGyedif4KAxg0lWvcviBpyEh
rHPEnZleNHWVM61pIz7x0sl572BcQAUqEko+ZihNrAXaAZdXYJTRdTIf1e346dWj
5f6DRy3C5h8c3quVLbgIoKSMQ3Brf2hoFngYbbPbdAbVb3pUixy38kqIZPJzTJcs
RC5QSQjxir1ZP+4cnSkoVJkRjSWs39bPyoSDO3GJu1LDYtYLtLQRJuNV8BRfo/xs
AghSxP/8ZdXzMrvouUIaAwH7EL8FTif8ZQHRKGYg57UembbcV+7ixGNRZAfueiqk
xYcMNXhGxQVDF+4Rf4WFv7czqyZprb1Wc+EHj6jeG0h7VwIx/2bcaff6dEWExFfS
PpK/euv59ivBOmG8n5fEfxtgL2DDWHEHe5t/nBycPu4stj0CAKCJSgGreojBd7qZ
LlER80DBwDgklDjU4lHkHPA1Bim/mwIDAQABo4IBiDCCAYQwdgYIKwYBBQUHAQEE
ajBoMDMGCCsGAQUFBzAChidodHRwOi8vcm9vdF9jYS5lZGdld29vZC5lZHUvcm9v
dF9jYS5jcnQwMQYIKwYBBQUHMAGGJWh0dHA6Ly9vY3NwLnJvb3RfY2EuZWRnZXdv
b2QuZWR1OjkwODAwHwYDVR0jBBgwFoAUsK+O9aEGx7OQSLS8z3AgrzO0JRQwEgYD
VR0TAQH/BAgwBgEB/wIBADA4BgNVHR8EMTAvMC2gK6AphidodHRwOi8vcm9vdF9j
YS5lZGdld29vZC5lZHUvcm9vdF9jYS5jcmwwHQYDVR0lBBYwFAYIKwYBBQUHAwIG
CCsGAQUFBwMBMA4GA1UdDwEB/wQEAwIBBjBNBgNVHR4ERjBEoBAwDoIMZWRnZXdv
b2QuZWR1oTAwCocIAAAAAAAAAAAwIocgAAAAAAAAAAAAAAAAAAAAAAAAAAAAAAAA
AAAAAAAAAAAwHQYDVR0OBBYEFFt9m68oS7IJ2qTsiGx4dINcwOL6MA0GCSqGSIb3
DQEBCwUAA4ICAQBZJPhjg3jLgGi0EWW3VwE9BDfu8NrzzJCNT630h3etFIltE8Yk
Tn8mx/QPrQ5RA1PTX0OzbbX1gAUPNJOq0X5xkLel95ojD3PJxBczMVruA72SHgW0
OoVQyk1LHj8+QMF/5a2fvto7lSUft4PbTFS6nR4XdeM+v0yUbRLQTbX68epT3qov
tK/MIj2YVxm5c91+JwxBUYPps7e0X/BUbQnK76X7on0SkVl0ySI+VCqSDZnuBugE
LYsiOg+hxn+s0eWylQQI+oAP9HpEfyrNUdVBoC31WJcIBEQCkUVEmDqsNUFNBOJm
1k2U9IRqlqV8IQq1HXXv0tnHDywn6t8v53+H2tgUHh0sgN9hJa7+aeIoA8cTyiBt
iSLikWC67WIyRwv+9ea4tBw/wIz/UJMQkE+vK0zpGqoZc22G1evLs0K07cEBVtx7
bhUqBlyc+UxH7gu2FValG/7zGgYhDmZgko/f17oGtJp/7EGjx7IrTvpvZiwvTvy4
QPJmZ0LuTqQ3D9Ye8FFL5+8BY0070Bt2yJcFfYFJKbtdtYLJZAxr7lWhDKt92HBj
a1ZEuz+4/OWm7PRyNvYC5moKsrSI5NB8nJh3vmPw4P98KDAkGHd91YfZlhczWGQz
IKForYzR+WyRLc8domlNL13LNox0oxRnbm16O5gldxvQAuai87v3bXHTrQ==
-----END CERTIFICATE-----
