Certificate:
    Data:
        Version: 3 (0x2)
        Serial Number:
            18:b7:4a:6d:35:5d:fb:72:d2:d8:ae:fb:b3:2a:9d:20
    Signature Algorithm: sha256WithRSAEncryption
        Issuer: C=US, O=Edgewood College, CN=Root CA
        Validity
            Not Before: Nov  8 20:29:51 2016 GMT
            Not After : Nov  6 20:29:51 2026 GMT
        Subject: C=US, O=Edgewood College, CN=CIS CA
        Subject Public Key Info:
            Public Key Algorithm: rsaEncryption
                Public-Key: (4096 bit)
                Modulus:
                    00:bf:23:7f:12:e6:01:e1:f2:85:cd:ac:63:c1:12:
                    2e:20:e4:dc:f7:b5:d7:3b:77:2d:7e:f0:f4:3a:0c:
                    e3:fd:25:07:06:65:69:d8:6f:ed:8e:07:57:04:0e:
                    b2:ff:59:46:29:e7:b7:eb:1c:9c:39:1b:d0:19:f4:
                    42:87:a3:fc:6c:5b:4a:05:2e:0b:44:ab:7e:0e:60:
                    fb:04:46:34:72:d8:2a:0e:98:11:66:31:d5:57:42:
                    af:8b:a6:83:ff:cf:f9:ea:ed:17:0b:8d:27:7b:6f:
                    94:5d:f6:e3:d4:cd:80:41:09:d4:1f:c1:41:38:dd:
                    27:13:46:23:f8:f8:73:a0:17:d1:a5:2f:54:a5:d3:
                    7c:45:b6:50:93:72:84:3e:e4:d8:1c:e7:cf:ec:a1:
                    cc:78:0b:eb:90:c4:ea:88:42:4f:ff:e2:21:d6:30:
                    42:cf:1f:45:e3:10:23:6f:3b:a4:ae:b9:91:c8:fe:
                    a4:1a:e3:87:67:a3:f8:7f:4d:46:7d:2f:7c:45:95:
                    5d:32:b5:54:11:9f:a9:b1:69:14:42:00:aa:1c:2d:
                    da:cb:a1:35:eb:ee:8b:4e:97:bc:cd:c6:0e:e6:8c:
                    70:15:9f:1f:d8:86:9d:11:4f:c6:26:eb:51:2b:be:
                    e4:44:44:58:b4:d3:d9:0d:81:62:85:f1:a5:52:2e:
                    b7:a3:f8:85:7b:8f:31:65:c7:40:74:28:12:3e:86:
                    63:12:84:8f:85:b5:c1:d9:dd:d9:bc:94:ce:81:cf:
                    8a:9c:79:2d:89:8e:28:f0:60:08:71:6a:99:b6:13:
                    52:bd:83:e1:3a:69:e0:9e:0c:c4:89:92:2e:b7:da:
                    9f:3e:45:3b:67:a6:b3:b8:0a:c9:7c:53:36:4f:fc:
                    de:93:f1:a2:94:77:fb:58:ac:7d:be:a0:6a:6e:ba:
                    07:0a:7d:02:85:1b:e7:d8:9f:ff:17:c8:b7:3b:6e:
                    9b:40:25:c3:95:89:d3:e9:28:20:03:d3:27:d9:c1:
                    1c:7c:5a:93:0a:01:80:a2:00:03:55:aa:7d:63:f7:
                    7e:24:89:24:1b:29:f5:b0:63:09:1b:ff:b2:2e:7f:
                    42:cf:ae:dc:8d:62:7c:37:40:9e:70:94:b6:85:e4:
                    73:2d:b8:3d:17:fe:6b:56:54:5c:a7:40:02:db:19:
                    87:68:4a:ab:3a:bb:7d:df:1c:d4:da:a7:37:4a:ba:
                    76:82:67:a5:22:cc:f3:16:8c:8a:92:4a:75:54:68:
                    ef:5d:6f:de:95:26:54:bc:c4:ae:00:05:e0:5b:c2:
                    16:e3:a1:13:83:2a:c2:53:fb:c1:1f:63:bb:7d:d9:
                    3b:22:4e:b8:4d:ff:dc:da:8c:7d:8f:44:d0:f4:52:
                    9c:5f:53
                Exponent: 65537 (0x10001)
        X509v3 extensions:
            Authority Information Access: 
                CA Issuers - URI:http://root_ca.edgewood.edu/root_ca.crt
                OCSP - URI:http://ocsp.root_ca.edgewood.edu:9080

            X509v3 Authority Key Identifier: 
                keyid:B0:AF:8E:F5:A1:06:C7:B3:90:48:B4:BC:CF:70:20:AF:33:B4:25:14

            X509v3 Basic Constraints: critical
                CA:TRUE, pathlen:0
            X509v3 CRL Distribution Points: 

                Full Name:
                  URI:http://root_ca.edgewood.edu/root_ca.crl

            X509v3 Extended Key Usage: 
                TLS Web Client Authentication, TLS Web Server Authentication
            X509v3 Key Usage: critical
                Certificate Sign, CRL Sign
            X509v3 Name Constraints: 
                Permitted:
                  DNS:edgewood.edu
                Excluded:
                  IP:0.0.0.0/0.0.0.0
                  IP:0:0:0:0:0:0:0:0/0:0:0:0:0:0:0:0

            X509v3 Subject Key Identifier: 
                B9:3D:17:0A:10:23:7B:F6:A6:67:F9:5A:F0:7F:33:78:57:FD:94:94
    Signature Algorithm: sha256WithRSAEncryption
         38:be:8d:52:4e:37:14:a4:1c:96:5c:2d:a9:b2:c6:3b:c6:7f:
         be:c4:7c:d6:ce:48:08:66:3c:f1:13:bc:0a:c3:ee:48:25:fe:
         90:ed:66:1a:ba:fd:51:8c:e6:52:fe:0f:78:9c:98:51:40:6c:
         04:d2:cb:4d:11:74:d4:19:69:fe:4e:ce:a1:42:af:bf:40:4d:
         bd:e7:93:72:69:64:e8:70:b6:15:5d:1a:cc:1d:28:d8:99:f0:
         b9:84:1d:bc:98:44:88:8d:d7:60:30:6b:ea:6e:cb:ec:b5:ca:
         dd:e9:26:4e:d0:8f:58:e0:a2:f8:7e:40:82:9e:ff:3e:92:3a:
         97:5e:ec:fc:e3:8b:0d:60:61:6e:d5:ca:b1:4a:7d:d0:9d:eb:
         d0:77:74:44:c5:74:33:16:97:33:23:60:b2:7f:24:dd:50:4c:
         af:ec:85:b5:69:2b:b5:33:af:f0:d9:79:86:04:c4:f4:4f:f2:
         c0:48:b6:19:43:22:5e:8d:23:3d:9b:c5:14:8d:09:ea:3f:5a:
         30:32:75:dc:3e:85:31:86:36:11:c4:68:41:65:5b:28:f9:e2:
         f4:84:4c:62:99:23:d3:b0:18:40:64:50:70:54:be:60:22:fc:
         8d:fc:f0:a7:12:ea:4b:0f:49:bc:5c:4e:d9:3b:3f:bc:85:9e:
         e5:10:e3:6a:bc:fe:89:45:d2:6e:dd:5e:94:c6:78:50:3b:07:
         1d:e3:fb:d2:07:02:2d:29:db:ba:64:8e:58:55:ee:6f:6e:8f:
         17:8d:19:64:27:46:ab:b7:20:70:b7:31:ea:18:f8:d8:33:4f:
         35:bd:ed:4f:bf:2d:5c:77:33:36:a0:3a:2e:85:fd:d7:16:9c:
         33:b1:8c:a3:33:d0:dc:b2:41:9e:b2:9a:d3:72:fb:ef:09:5c:
         49:db:46:5b:81:f2:75:0a:37:84:db:0a:31:20:67:39:40:16:
         04:8a:b0:a7:ee:98:fe:15:3a:e2:2a:98:e0:bf:c7:64:ea:25:
         07:5a:13:b8:ee:73:da:e7:d2:25:f6:07:9c:8a:69:90:cc:8b:
         cb:67:e9:65:65:99:2c:93:94:d7:7b:fb:fa:94:ff:91:27:74:
         d2:e7:d1:0c:55:24:b5:1d:73:b6:f8:85:83:ea:b9:8a:55:6d:
         96:51:d5:e3:52:4a:f3:e4:f7:a5:2a:88:9c:18:64:23:59:e4:
         60:96:0a:d5:08:15:ab:39:fa:6b:76:ac:c0:7c:b8:b0:f5:86:
         d7:bd:bc:06:7b:fd:07:d2:5f:25:b7:9e:72:42:fd:32:ea:30:
         b0:21:ff:b6:1a:0c:76:1a:7b:5b:5d:07:7a:48:38:cc:9f:00:
         53:25:a3:01:7d:dc:e2:98
-----BEGIN CERTIFICATE-----
MIIGhzCCBG+gAwIBAgIQGLdKbTVd+3LS2K77syqdIDANBgkqhkiG9w0BAQsFADA6
MQswCQYDVQQGEwJVUzEZMBcGA1UECgwQRWRnZXdvb2QgQ29sbGVnZTEQMA4GA1UE
AwwHUm9vdCBDQTAeFw0xNjExMDgyMDI5NTFaFw0yNjExMDYyMDI5NTFaMDkxCzAJ
BgNVBAYTAlVTMRkwFwYDVQQKDBBFZGdld29vZCBDb2xsZWdlMQ8wDQYDVQQDDAZD
SVMgQ0EwggIiMA0GCSqGSIb3DQEBAQUAA4ICDwAwggIKAoICAQC/I38S5gHh8oXN
rGPBEi4g5Nz3tdc7dy1+8PQ6DOP9JQcGZWnYb+2OB1cEDrL/WUYp57frHJw5G9AZ
9EKHo/xsW0oFLgtEq34OYPsERjRy2CoOmBFmMdVXQq+LpoP/z/nq7RcLjSd7b5Rd
9uPUzYBBCdQfwUE43ScTRiP4+HOgF9GlL1Sl03xFtlCTcoQ+5Ngc58/socx4C+uQ
xOqIQk//4iHWMELPH0XjECNvO6SuuZHI/qQa44dno/h/TUZ9L3xFlV0ytVQRn6mx
aRRCAKocLdrLoTXr7otOl7zNxg7mjHAVnx/Yhp0RT8Ym61ErvuRERFi009kNgWKF
8aVSLrej+IV7jzFlx0B0KBI+hmMShI+FtcHZ3dm8lM6Bz4qceS2JjijwYAhxapm2
E1K9g+E6aeCeDMSJki632p8+RTtnprO4Csl8UzZP/N6T8aKUd/tYrH2+oGpuugcK
fQKFG+fYn/8XyLc7bptAJcOVidPpKCAD0yfZwRx8WpMKAYCiAANVqn1j934kiSQb
KfWwYwkb/7Iuf0LPrtyNYnw3QJ5wlLaF5HMtuD0X/mtWVFynQALbGYdoSqs6u33f
HNTapzdKunaCZ6UizPMWjIqSSnVUaO9db96VJlS8xK4ABeBbwhbjoRODKsJT+8Ef
Y7t92TsiTrhN/9zajH2PRND0UpxfUwIDAQABo4IBiDCCAYQwdgYIKwYBBQUHAQEE
ajBoMDMGCCsGAQUFBzAChidodHRwOi8vcm9vdF9jYS5lZGdld29vZC5lZHUvcm9v
dF9jYS5jcnQwMQYIKwYBBQUHMAGGJWh0dHA6Ly9vY3NwLnJvb3RfY2EuZWRnZXdv
b2QuZWR1OjkwODAwHwYDVR0jBBgwFoAUsK+O9aEGx7OQSLS8z3AgrzO0JRQwEgYD
VR0TAQH/BAgwBgEB/wIBADA4BgNVHR8EMTAvMC2gK6AphidodHRwOi8vcm9vdF9j
YS5lZGdld29vZC5lZHUvcm9vdF9jYS5jcmwwHQYDVR0lBBYwFAYIKwYBBQUHAwIG
CCsGAQUFBwMBMA4GA1UdDwEB/wQEAwIBBjBNBgNVHR4ERjBEoBAwDoIMZWRnZXdv
b2QuZWR1oTAwCocIAAAAAAAAAAAwIocgAAAAAAAAAAAAAAAAAAAAAAAAAAAAAAAA
AAAAAAAAAAAwHQYDVR0OBBYEFLk9FwoQI3v2pmf5WvB/M3hX/ZSUMA0GCSqGSIb3
DQEBCwUAA4ICAQA4vo1STjcUpByWXC2pssY7xn++xHzWzkgIZjzxE7wKw+5IJf6Q
7WYauv1RjOZS/g94nJhRQGwE0stNEXTUGWn+Ts6hQq+/QE2955NyaWTocLYVXRrM
HSjYmfC5hB28mESIjddgMGvqbsvstcrd6SZO0I9Y4KL4fkCCnv8+kjqXXuz844sN
YGFu1cqxSn3QnevQd3RExXQzFpczI2CyfyTdUEyv7IW1aSu1M6/w2XmGBMT0T/LA
SLYZQyJejSM9m8UUjQnqP1owMnXcPoUxhjYRxGhBZVso+eL0hEximSPTsBhAZFBw
VL5gIvyN/PCnEupLD0m8XE7ZOz+8hZ7lEONqvP6JRdJu3V6UxnhQOwcd4/vSBwIt
Kdu6ZI5YVe5vbo8XjRlkJ0artyBwtzHqGPjYM081ve1Pvy1cdzM2oDouhf3XFpwz
sYyjM9DcskGesprTcvvvCVxJ20ZbgfJ1CjeE2woxIGc5QBYEirCn7pj+FTriKpjg
v8dk6iUHWhO47nPa59Il9gecimmQzIvLZ+llZZksk5TXe/v6lP+RJ3TS59EMVSS1
HXO2+IWD6rmKVW2WUdXjUkrz5PelKoicGGQjWeRglgrVCBWrOfprdqzAfLiw9YbX
vbwGe/0H0l8lt55yQv0y6jCwIf+2Ggx2GntbXQd6SDjMnwBTJaMBfdzimA==
-----END CERTIFICATE-----
