Certificate:
    Data:
        Version: 3 (0x2)
        Serial Number:
            1d:d0:07:1c:80:8f:4e:75:3a:3c:2b:b6:1b:b9:50:75
    Signature Algorithm: sha256WithRSAEncryption
        Issuer: C=US, O=Edgewood College, CN=CIS CA
        Validity
            Not Before: Nov 10 02:15:25 2016 GMT
            Not After : Nov  8 02:15:25 2026 GMT
        Subject: C=US, ST=Wisconsin, O=Edgewood College, OU=cs430, CN=Elias/emailAddress=ejzografi@edgewood.edu
        Subject Public Key Info:
            Public Key Algorithm: rsaEncryption
                Public-Key: (2048 bit)
                Modulus:
                    00:e2:d7:9a:a5:ec:07:61:70:78:0b:7c:9d:5f:fa:
                    f7:31:13:fe:bf:82:72:be:8b:46:22:17:c5:b0:33:
                    a3:04:b5:15:8a:97:cd:9f:c2:e7:aa:e3:b9:5d:78:
                    e8:99:2d:c9:f3:e3:76:6d:78:29:a6:ac:85:98:3c:
                    2c:3f:20:c3:c5:16:a1:09:8e:67:67:79:2c:6f:01:
                    56:24:5f:89:b0:5c:35:58:65:e6:ce:51:8b:79:c1:
                    dc:0d:59:3c:46:45:98:db:f5:38:b2:1a:42:6e:d5:
                    39:85:0d:79:eb:a8:da:8d:55:c7:06:d3:c4:5a:f7:
                    59:d9:de:1b:36:85:b8:e7:b4:a9:28:a6:0d:fc:08:
                    35:a8:fe:90:41:25:c2:4c:f3:2c:0b:b1:45:7c:7c:
                    f7:e8:c4:16:32:31:bb:ed:ca:66:24:65:ab:81:89:
                    1b:3e:11:58:32:72:24:d8:92:0d:ed:df:14:9a:e9:
                    31:83:df:d7:aa:1f:31:bc:00:65:5f:a7:37:44:b2:
                    e8:6c:d3:29:df:f3:23:f5:34:90:9e:b1:8b:f0:bd:
                    bb:95:d5:6d:ad:20:9d:4c:3a:90:ca:40:95:79:65:
                    45:3a:4e:69:92:8a:d2:0b:6e:4f:d0:14:2f:a4:ea:
                    88:23:aa:c1:85:a2:65:84:b6:e1:dd:2f:a6:c6:66:
                    e4:d9
                Exponent: 65537 (0x10001)
        X509v3 extensions:
            Authority Information Access: 
                CA Issuers - URI:http://cis_ca.edgewood.edu/cis_ca.crt
                OCSP - URI:http://ocsp.cis_ca.edgewood.edu:9082

            X509v3 Authority Key Identifier: 
                keyid:A6:C5:37:F6:27:8C:BA:1E:77:62:20:44:70:FB:9C:4E:5C:00:ED:A4

            X509v3 Basic Constraints: critical
                CA:FALSE
            X509v3 CRL Distribution Points: 

                Full Name:
                  URI:http://cis_ca.edgewood.edu/cis_ca.crl

            X509v3 Extended Key Usage: 
                TLS Web Client Authentication
            X509v3 Key Usage: critical
                Digital Signature
            X509v3 Subject Key Identifier: 
                1C:CD:D7:77:B1:1F:24:DA:FB:AF:E2:DB:DE:B3:66:3A:7E:62:43:A5
    Signature Algorithm: sha256WithRSAEncryption
         60:a3:a5:12:bb:a8:31:5f:0f:9a:c8:81:8c:85:3e:26:28:cf:
         5e:33:5d:25:a1:1f:3c:10:89:5e:0f:ab:e6:af:18:5a:45:9f:
         ce:e9:7e:3e:52:f0:72:9a:8c:41:45:76:c2:c0:89:c9:fd:1a:
         97:0c:5a:fd:0b:79:fc:7e:c1:d5:ca:31:9e:65:9a:a2:4b:6a:
         7b:2b:f6:83:bd:70:10:71:fa:33:28:57:e3:90:4b:e2:df:c7:
         92:eb:b3:c5:c1:8e:56:a0:25:29:37:e2:15:b8:85:01:a0:d5:
         54:8e:fc:fc:5f:33:53:29:32:2e:cb:6b:67:48:56:aa:70:be:
         47:b9:a6:ed:31:c9:94:f4:ce:8f:90:88:39:80:b3:1d:25:3f:
         cc:2e:89:ee:37:ae:3c:e5:25:71:22:22:6a:2e:83:3f:76:ac:
         f2:1a:62:ce:51:eb:d5:cf:fb:74:00:02:f6:05:fb:68:a1:a5:
         cd:3d:71:8d:5e:ce:35:8c:0d:a7:03:34:d9:bc:1a:e7:9b:2b:
         4d:76:78:96:4d:98:a0:cd:a3:62:83:f5:61:26:a4:bc:91:a0:
         40:18:e0:72:bd:a1:a0:af:a5:60:87:c8:c2:84:e4:e4:85:59:
         ce:5f:f7:35:9d:70:99:fe:53:e1:8a:d1:73:e6:66:85:ee:ab:
         23:d6:6b:5d:5b:e3:3f:db:81:23:09:9d:b2:f5:88:c4:5b:c5:
         9a:6d:54:5e:87:76:be:aa:31:f4:ed:f7:b3:09:c7:3c:92:75:
         69:e9:22:4b:70:d8:73:2f:32:d6:bf:af:d4:fd:76:2e:40:89:
         68:09:8f:e9:90:9a:8b:af:4c:67:12:ba:ee:b3:b6:8a:c5:42:
         c5:16:ea:b3:c1:2e:6a:4a:d1:d5:8c:e7:cb:48:8d:04:4c:20:
         66:48:21:34:fa:12:d0:3d:78:07:59:82:fc:8e:4c:3a:19:08:
         e8:e2:99:a2:de:26:0a:27:60:e2:ea:f4:20:73:f1:85:b8:0a:
         89:90:ae:44:f3:a8:b2:e1:41:55:72:20:8a:79:fd:a3:e6:bf:
         61:3c:6d:1a:74:1c:2b:71:0b:65:29:0b:72:78:a1:28:57:d3:
         a0:24:2d:52:12:f8:7a:9a:ce:2f:4c:28:f8:d3:5b:6f:1c:d2:
         bd:a2:8b:fa:c3:ff:b7:6f:11:af:2f:cb:7f:09:c3:22:d2:46:
         7d:0b:31:e2:9e:6e:bb:be:2f:eb:46:22:cf:81:d4:ff:ae:3c:
         08:1e:3f:b2:3b:fc:20:5a:1f:16:eb:bf:be:a4:f3:82:cd:30:
         c7:a1:fe:6f:96:9f:9a:6c:19:90:bc:55:c1:48:fc:57:c1:c9:
         a2:21:b9:80:b8:74:4f:9e
-----BEGIN CERTIFICATE-----
MIIFbTCCA1WgAwIBAgIQHdAHHICPTnU6PCu2G7lQdTANBgkqhkiG9w0BAQsFADA5
MQswCQYDVQQGEwJVUzEZMBcGA1UECgwQRWRnZXdvb2QgQ29sbGVnZTEPMA0GA1UE
AwwGQ0lTIENBMB4XDTE2MTExMDAyMTUyNVoXDTI2MTEwODAyMTUyNVowgYMxCzAJ
BgNVBAYTAlVTMRIwEAYDVQQIDAlXaXNjb25zaW4xGTAXBgNVBAoMEEVkZ2V3b29k
IENvbGxlZ2UxDjAMBgNVBAsMBWNzNDMwMQ4wDAYDVQQDDAVFbGlhczElMCMGCSqG
SIb3DQEJARYWZWp6b2dyYWZpQGVkZ2V3b29kLmVkdTCCASIwDQYJKoZIhvcNAQEB
BQADggEPADCCAQoCggEBAOLXmqXsB2FweAt8nV/69zET/r+Ccr6LRiIXxbAzowS1
FYqXzZ/C56rjuV146JktyfPjdm14KaashZg8LD8gw8UWoQmOZ2d5LG8BViRfibBc
NVhl5s5Ri3nB3A1ZPEZFmNv1OLIaQm7VOYUNeeuo2o1VxwbTxFr3WdneGzaFuOe0
qSimDfwINaj+kEElwkzzLAuxRXx89+jEFjIxu+3KZiRlq4GJGz4RWDJyJNiSDe3f
FJrpMYPf16ofMbwAZV+nN0Sy6GzTKd/zI/U0kJ6xi/C9u5XVba0gnUw6kMpAlXll
RTpOaZKK0gtuT9AUL6TqiCOqwYWiZYS24d0vpsZm5NkCAwEAAaOCASQwggEgMHMG
CCsGAQUFBwEBBGcwZTAxBggrBgEFBQcwAoYlaHR0cDovL2Npc19jYS5lZGdld29v
ZC5lZHUvY2lzX2NhLmNydDAwBggrBgEFBQcwAYYkaHR0cDovL29jc3AuY2lzX2Nh
LmVkZ2V3b29kLmVkdTo5MDgyMB8GA1UdIwQYMBaAFKbFN/YnjLoed2IgRHD7nE5c
AO2kMAwGA1UdEwEB/wQCMAAwNgYDVR0fBC8wLTAroCmgJ4YlaHR0cDovL2Npc19j
YS5lZGdld29vZC5lZHUvY2lzX2NhLmNybDATBgNVHSUEDDAKBggrBgEFBQcDAjAO
BgNVHQ8BAf8EBAMCB4AwHQYDVR0OBBYEFBzN13exHyTa+6/i296zZjp+YkOlMA0G
CSqGSIb3DQEBCwUAA4ICAQBgo6USu6gxXw+ayIGMhT4mKM9eM10loR88EIleD6vm
rxhaRZ/O6X4+UvBymoxBRXbCwInJ/RqXDFr9C3n8fsHVyjGeZZqiS2p7K/aDvXAQ
cfozKFfjkEvi38eS67PFwY5WoCUpN+IVuIUBoNVUjvz8XzNTKTIuy2tnSFaqcL5H
uabtMcmU9M6PkIg5gLMdJT/MLonuN6485SVxIiJqLoM/dqzyGmLOUevVz/t0AAL2
BftooaXNPXGNXs41jA2nAzTZvBrnmytNdniWTZigzaNig/VhJqS8kaBAGOByvaGg
r6Vgh8jChOTkhVnOX/c1nXCZ/lPhitFz5maF7qsj1mtdW+M/24EjCZ2y9YjEW8Wa
bVReh3a+qjH07fezCcc8knVp6SJLcNhzLzLWv6/U/XYuQIloCY/pkJqLr0xnErru
s7aKxULFFuqzwS5qStHVjOfLSI0ETCBmSCE0+hLQPXgHWYL8jkw6GQjo4pmi3iYK
J2Di6vQgc/GFuAqJkK5E86iy4UFVciCKef2j5r9hPG0adBwrcQtlKQtyeKEoV9Og
JC1SEvh6ms4vTCj401tvHNK9oov6w/+3bxGvL8t/CcMi0kZ9CzHinm67vi/rRiLP
gdT/rjwIHj+yO/wgWh8W67++pPOCzTDHof5vlp+abBmQvFXBSPxXwcmiIbmAuHRP
ng==
-----END CERTIFICATE-----
