Certificate:
    Data:
        Version: 3 (0x2)
        Serial Number:
            1d:d0:07:1c:80:8f:4e:75:3a:3c:2b:b6:1b:b9:50:79
    Signature Algorithm: sha256WithRSAEncryption
        Issuer: C=US, O=Edgewood College, CN=CIS CA
        Validity
            Not Before: Nov 14 21:19:35 2016 GMT
            Not After : Nov 12 21:19:35 2026 GMT
        Subject: C=US, ST=WI, O=Edgewood College, OU=CIS, CN=Xander Bebber/emailAddress=xbebber@edgewood.edu
        Subject Public Key Info:
            Public Key Algorithm: rsaEncryption
                Public-Key: (2048 bit)
                Modulus:
                    00:df:c4:47:b5:ae:87:0a:2a:dd:7d:f2:21:60:16:
                    90:1a:8c:1f:e9:5d:8d:e9:e5:f0:30:da:05:b5:23:
                    4b:b2:e2:6f:0a:d2:19:fb:c9:4e:0b:69:7b:c8:50:
                    06:0f:a6:6a:d2:4c:2e:83:88:d5:1c:be:b0:0e:50:
                    f9:a2:cb:c9:d5:af:9d:08:a1:5c:94:fb:9e:ff:f2:
                    22:9a:48:a2:fa:2b:2c:0a:36:bf:e4:64:d3:bc:ba:
                    15:9f:a7:03:cf:4b:3f:81:6f:2e:12:4a:1c:1d:0f:
                    a8:5c:dc:61:ef:90:ea:cf:b0:73:bb:b9:21:d4:db:
                    dc:17:85:a8:e4:f8:63:3f:42:65:15:15:79:06:db:
                    0c:ee:58:79:81:6b:e1:54:df:e1:d8:ae:96:14:7f:
                    f4:1d:0d:36:df:a6:a4:47:7b:79:ba:95:4e:fe:21:
                    89:80:ff:dd:52:6a:e0:2f:7a:90:97:ad:5a:8a:52:
                    0c:5e:43:5b:aa:f6:c2:ee:76:90:75:da:a7:82:36:
                    4d:55:41:07:2f:38:50:16:4f:f9:50:f0:99:2a:de:
                    8e:72:2e:09:35:23:99:29:b6:b5:5e:39:1e:25:02:
                    3f:e3:bd:40:96:7e:75:f5:c1:62:63:ad:d7:2d:98:
                    2e:9a:a2:d3:65:d5:f5:6f:43:ea:a3:10:62:05:04:
                    46:d5
                Exponent: 65537 (0x10001)
        X509v3 extensions:
            Authority Information Access: 
                CA Issuers - URI:http://cis_ca.edgewood.edu/cis_ca.crt
                OCSP - URI:http://ocsp.cis_ca.edgewood.edu:9082

            X509v3 Authority Key Identifier: 
                keyid:A6:C5:37:F6:27:8C:BA:1E:77:62:20:44:70:FB:9C:4E:5C:00:ED:A4

            X509v3 Basic Constraints: critical
                CA:FALSE
            X509v3 CRL Distribution Points: 

                Full Name:
                  URI:http://cis_ca.edgewood.edu/cis_ca.crl

            X509v3 Extended Key Usage: 
                TLS Web Client Authentication
            X509v3 Key Usage: critical
                Digital Signature
            X509v3 Subject Key Identifier: 
                96:BE:3A:76:9E:FD:BC:BC:A0:D5:C5:1F:90:FF:BC:10:ED:93:25:58
    Signature Algorithm: sha256WithRSAEncryption
         1e:84:9c:8a:90:2c:3c:23:d3:d5:c3:f4:9a:21:ab:86:d7:73:
         12:53:4d:17:06:99:00:37:5b:a3:72:f4:ca:8e:2c:2d:0b:d6:
         60:28:81:1c:47:d9:79:59:86:8b:08:f2:e1:72:41:1c:95:e4:
         4e:d3:8d:9f:79:5f:87:ba:c1:5f:5f:55:66:91:8c:6e:d0:e1:
         cc:3d:11:49:2f:57:61:4a:bd:14:44:fb:98:76:22:97:c7:2b:
         03:51:93:30:ab:fb:36:f7:26:e3:49:6a:06:a2:0a:15:bf:ee:
         de:09:bf:ee:a2:78:a2:27:27:48:57:a2:dc:74:5a:24:dc:ce:
         40:7d:79:af:02:a0:9c:8e:d0:b9:c9:1b:e6:aa:89:7e:f1:1a:
         c2:60:81:24:ea:75:2c:de:8f:b2:54:b7:89:cb:cc:f3:c3:29:
         d3:1f:94:12:46:8c:39:04:98:4f:88:9e:24:7b:f9:c3:b9:dd:
         96:f7:90:51:b1:6f:38:93:08:72:a5:3a:8b:52:cd:fb:d0:51:
         c4:30:01:a5:44:ef:b1:09:49:bb:51:1f:74:09:bd:fe:01:6b:
         bd:96:ed:a4:4b:9b:76:4e:de:4a:19:57:80:2c:9d:46:42:c4:
         83:61:e7:a6:1c:de:1a:25:ac:19:9d:78:ba:08:69:8b:e3:04:
         98:79:34:ca:50:dc:0e:7a:52:76:12:33:79:e9:51:8b:1d:78:
         a3:d8:13:5e:3a:bd:9c:2a:c6:1b:e3:07:04:cf:78:e2:5d:32:
         94:ae:8a:ef:be:b6:d7:58:e6:59:9b:62:ad:c0:31:51:0d:14:
         86:3a:57:74:03:e5:64:cf:03:7f:d6:41:27:80:11:19:2c:49:
         63:1b:64:fd:38:41:0d:43:50:ab:e0:eb:44:37:d4:f6:1a:be:
         8f:7a:a0:ad:25:65:4a:71:ec:e4:19:58:6f:ec:4e:9f:bb:11:
         cb:52:78:98:24:2a:9e:84:1f:d6:b5:6e:fd:a0:af:00:12:5e:
         ac:9c:11:48:2c:61:06:28:e9:2a:23:28:02:28:c4:5a:91:bb:
         21:a2:52:7c:47:9a:fd:39:c7:f3:78:61:5b:59:16:07:c2:36:
         a4:53:3a:fe:0b:a7:ba:26:52:dc:03:7e:6b:40:36:2d:ca:eb:
         9a:42:92:16:0e:70:01:f2:93:d2:2f:00:38:20:47:4b:77:5d:
         0d:e1:ba:06:96:f9:8d:60:dc:c3:69:88:06:80:80:da:f8:87:
         06:95:f5:b7:86:83:4c:d1:17:6f:e2:94:90:b1:15:78:39:39:
         85:6b:1f:50:7b:95:e0:6e:5b:05:7d:b3:fc:95:5b:97:8b:12:
         03:0d:41:39:54:9d:4d:25
-----BEGIN CERTIFICATE-----
MIIFajCCA1KgAwIBAgIQHdAHHICPTnU6PCu2G7lQeTANBgkqhkiG9w0BAQsFADA5
MQswCQYDVQQGEwJVUzEZMBcGA1UECgwQRWRnZXdvb2QgQ29sbGVnZTEPMA0GA1UE
AwwGQ0lTIENBMB4XDTE2MTExNDIxMTkzNVoXDTI2MTExMjIxMTkzNVowgYAxCzAJ
BgNVBAYTAlVTMQswCQYDVQQIDAJXSTEZMBcGA1UECgwQRWRnZXdvb2QgQ29sbGVn
ZTEMMAoGA1UECwwDQ0lTMRYwFAYDVQQDDA1YYW5kZXIgQmViYmVyMSMwIQYJKoZI
hvcNAQkBFhR4YmViYmVyQGVkZ2V3b29kLmVkdTCCASIwDQYJKoZIhvcNAQEBBQAD
ggEPADCCAQoCggEBAN/ER7Wuhwoq3X3yIWAWkBqMH+ldjenl8DDaBbUjS7LibwrS
GfvJTgtpe8hQBg+matJMLoOI1Ry+sA5Q+aLLydWvnQihXJT7nv/yIppIovorLAo2
v+Rk07y6FZ+nA89LP4FvLhJKHB0PqFzcYe+Q6s+wc7u5IdTb3BeFqOT4Yz9CZRUV
eQbbDO5YeYFr4VTf4diulhR/9B0NNt+mpEd7ebqVTv4hiYD/3VJq4C96kJetWopS
DF5DW6r2wu52kHXap4I2TVVBBy84UBZP+VDwmSrejnIuCTUjmSm2tV45HiUCP+O9
QJZ+dfXBYmOt1y2YLpqi02XV9W9D6qMQYgUERtUCAwEAAaOCASQwggEgMHMGCCsG
AQUFBwEBBGcwZTAxBggrBgEFBQcwAoYlaHR0cDovL2Npc19jYS5lZGdld29vZC5l
ZHUvY2lzX2NhLmNydDAwBggrBgEFBQcwAYYkaHR0cDovL29jc3AuY2lzX2NhLmVk
Z2V3b29kLmVkdTo5MDgyMB8GA1UdIwQYMBaAFKbFN/YnjLoed2IgRHD7nE5cAO2k
MAwGA1UdEwEB/wQCMAAwNgYDVR0fBC8wLTAroCmgJ4YlaHR0cDovL2Npc19jYS5l
ZGdld29vZC5lZHUvY2lzX2NhLmNybDATBgNVHSUEDDAKBggrBgEFBQcDAjAOBgNV
HQ8BAf8EBAMCB4AwHQYDVR0OBBYEFJa+Onae/by8oNXFH5D/vBDtkyVYMA0GCSqG
SIb3DQEBCwUAA4ICAQAehJyKkCw8I9PVw/SaIauG13MSU00XBpkAN1ujcvTKjiwt
C9ZgKIEcR9l5WYaLCPLhckEcleRO042feV+HusFfX1VmkYxu0OHMPRFJL1dhSr0U
RPuYdiKXxysDUZMwq/s29ybjSWoGogoVv+7eCb/uoniiJydIV6LcdFok3M5AfXmv
AqCcjtC5yRvmqol+8RrCYIEk6nUs3o+yVLeJy8zzwynTH5QSRow5BJhPiJ4ke/nD
ud2W95BRsW84kwhypTqLUs370FHEMAGlRO+xCUm7UR90Cb3+AWu9lu2kS5t2Tt5K
GVeALJ1GQsSDYeemHN4aJawZnXi6CGmL4wSYeTTKUNwOelJ2EjN56VGLHXij2BNe
Or2cKsYb4wcEz3jiXTKUrorvvrbXWOZZm2KtwDFRDRSGOld0A+VkzwN/1kEngBEZ
LEljG2T9OEENQ1Cr4OtEN9T2Gr6PeqCtJWVKcezkGVhv7E6fuxHLUniYJCqehB/W
tW79oK8AEl6snBFILGEGKOkqIygCKMRakbsholJ8R5r9OcfzeGFbWRYHwjakUzr+
C6e6JlLcA35rQDYtyuuaQpIWDnAB8pPSLwA4IEdLd10N4boGlvmNYNzDaYgGgIDa
+IcGlfW3hoNM0Rdv4pSQsRV4OTmFax9Qe5XgblsFfbP8lVuXixIDDUE5VJ1NJQ==
-----END CERTIFICATE-----
