Certificate:
    Data:
        Version: 3 (0x2)
        Serial Number:
            1d:d0:07:1c:80:8f:4e:75:3a:3c:2b:b6:1b:b9:50:6f
    Signature Algorithm: sha256WithRSAEncryption
        Issuer: C=US, O=Edgewood College, CN=CIS CA
        Validity
            Not Before: Nov  9 21:31:32 2016 GMT
            Not After : Nov  7 21:31:32 2026 GMT
        Subject: C=US, ST=WI, O=Edgewood College, OU=CIS, CN=Shahbaz Durrani/emailAddress=sdurrani1337@edgewood.edu
        Subject Public Key Info:
            Public Key Algorithm: rsaEncryption
                Public-Key: (2048 bit)
                Modulus:
                    00:be:19:9b:3e:ac:57:44:f5:24:11:a1:2d:9d:7c:
                    ae:64:f9:c2:c4:f5:b2:fb:5f:a9:84:6f:b2:8a:2d:
                    07:af:fc:28:91:f2:db:c7:a9:08:17:bb:a4:63:73:
                    f8:78:4b:96:5a:16:5c:cc:02:10:fa:0c:17:80:b9:
                    6d:64:32:07:45:91:d0:f4:11:e9:6d:00:d2:59:71:
                    0b:a0:2c:1a:e9:fd:2c:1a:a4:2d:5d:ff:ab:ad:fa:
                    9e:ed:2f:ee:08:cb:33:d4:a8:b8:e7:85:c9:ea:c4:
                    3d:56:63:50:b1:a6:e5:49:e6:5e:c9:4a:2b:d2:1c:
                    ee:ac:6c:77:b9:f5:ed:63:09:fa:2f:1e:45:d2:99:
                    5d:69:ac:b7:31:65:44:5a:28:bf:36:fe:20:9b:55:
                    06:e2:a6:70:f9:cd:6b:c5:04:b0:88:69:30:e1:f9:
                    cd:14:12:ad:6d:e8:29:66:4e:20:c6:d6:9a:8a:c6:
                    f1:97:73:3c:16:4b:14:9c:5e:38:86:e0:4a:ab:e0:
                    cb:2b:60:0b:b1:63:8f:bb:97:5d:57:ea:57:16:16:
                    a2:58:00:35:68:3a:77:e3:23:f8:c8:5e:09:4c:71:
                    58:cf:c1:7f:e5:9a:49:16:29:5f:1c:15:c7:43:48:
                    a9:b5:ff:71:a4:dc:d1:1d:e2:47:33:b4:d7:bf:ef:
                    17:b7
                Exponent: 65537 (0x10001)
        X509v3 extensions:
            Authority Information Access: 
                CA Issuers - URI:http://cis_ca.edgewood.edu/cis_ca.crt
                OCSP - URI:http://ocsp.cis_ca.edgewood.edu:9082

            X509v3 Authority Key Identifier: 
                keyid:A6:C5:37:F6:27:8C:BA:1E:77:62:20:44:70:FB:9C:4E:5C:00:ED:A4

            X509v3 Basic Constraints: critical
                CA:FALSE
            X509v3 CRL Distribution Points: 

                Full Name:
                  URI:http://cis_ca.edgewood.edu/cis_ca.crl

            X509v3 Extended Key Usage: 
                TLS Web Client Authentication
            X509v3 Key Usage: critical
                Digital Signature
            X509v3 Subject Key Identifier: 
                A8:B5:48:50:8D:7F:96:D3:F3:D1:2B:6C:79:B9:C6:8F:93:5B:58:1F
    Signature Algorithm: sha256WithRSAEncryption
         98:47:45:82:d8:2c:67:e5:f7:12:b6:3b:5d:a7:8e:e9:14:c4:
         30:b8:7a:80:a1:df:5d:24:86:98:5d:bb:5b:a7:0e:a3:25:a0:
         43:a7:72:06:d1:16:9b:e2:12:e5:0b:af:59:91:8c:cb:7e:7e:
         57:22:60:37:39:ca:6c:b8:77:ff:bf:1e:34:75:2b:1c:b3:70:
         85:9c:6e:58:2e:aa:23:93:25:cf:a4:40:d6:2e:d1:d7:e6:e9:
         55:d6:ec:39:2b:02:72:b4:3f:bb:79:c9:cc:b8:a0:56:03:66:
         1d:79:22:78:9b:0b:89:79:0b:1d:dc:4f:c5:ed:02:96:28:db:
         6b:ae:cd:e8:65:66:25:d7:a0:1e:f1:4c:d7:fd:5c:69:1b:a4:
         a2:79:02:0e:e4:ec:66:81:f5:2c:45:a7:e0:7a:9d:e9:da:0e:
         aa:c1:01:63:51:81:21:7a:7f:94:b8:7d:c8:3c:19:df:eb:bd:
         b6:8f:bd:9e:ec:82:c0:8a:74:8d:d8:8e:dc:0a:d2:fb:44:d3:
         a5:4b:e0:88:b6:5e:57:06:a2:d4:c3:a9:47:27:fd:b1:06:fe:
         20:01:af:1d:8b:d9:80:31:19:3e:25:27:fb:4d:9a:20:06:00:
         2c:af:c9:87:85:07:e0:af:a3:df:5a:b7:6a:95:2d:74:56:1f:
         13:45:3e:10:03:28:2b:28:65:59:ed:35:a6:24:38:50:42:38:
         80:54:4b:44:ab:e8:52:de:2d:95:20:46:de:4b:c7:c8:0c:9e:
         ee:ba:28:eb:7b:ec:1c:d8:b2:ae:9f:14:b5:4d:63:89:53:55:
         43:9e:f8:86:f7:bf:a6:10:25:0e:68:14:ea:fb:3e:b8:ea:53:
         e8:aa:d3:e6:1b:bb:21:25:6b:01:60:12:b2:02:ca:b2:7f:23:
         95:c4:db:d4:f1:11:0d:57:e8:9d:0c:d4:15:ef:b8:bd:d0:ca:
         54:ac:25:3a:58:73:98:f4:18:d2:39:09:ff:09:ba:62:65:1c:
         2f:bd:c4:2c:a3:4f:a9:b7:df:c2:0a:ae:bc:6b:db:05:04:a9:
         ad:96:45:eb:71:59:0a:a7:0b:12:ad:75:db:a9:8c:e9:12:f2:
         f0:9b:06:7c:9b:db:28:66:5c:da:5c:26:25:a6:c5:97:0b:0b:
         3b:45:de:f1:51:6e:27:35:15:7a:08:7e:53:a9:31:1f:95:c8:
         8a:03:ff:85:eb:7c:b3:ca:7f:d1:31:be:03:9e:55:1a:b8:f8:
         5c:94:71:27:60:eb:50:6f:cb:56:88:91:49:fd:f2:e5:f5:64:
         10:63:ed:9c:94:63:55:50:02:a2:c5:06:8c:bb:92:a4:1f:ce:
         7b:0f:9e:e9:82:be:e0:06
-----BEGIN CERTIFICATE-----
MIIFcTCCA1mgAwIBAgIQHdAHHICPTnU6PCu2G7lQbzANBgkqhkiG9w0BAQsFADA5
MQswCQYDVQQGEwJVUzEZMBcGA1UECgwQRWRnZXdvb2QgQ29sbGVnZTEPMA0GA1UE
AwwGQ0lTIENBMB4XDTE2MTEwOTIxMzEzMloXDTI2MTEwNzIxMzEzMlowgYcxCzAJ
BgNVBAYTAlVTMQswCQYDVQQIDAJXSTEZMBcGA1UECgwQRWRnZXdvb2QgQ29sbGVn
ZTEMMAoGA1UECwwDQ0lTMRgwFgYDVQQDDA9TaGFoYmF6IER1cnJhbmkxKDAmBgkq
hkiG9w0BCQEWGXNkdXJyYW5pMTMzN0BlZGdld29vZC5lZHUwggEiMA0GCSqGSIb3
DQEBAQUAA4IBDwAwggEKAoIBAQC+GZs+rFdE9SQRoS2dfK5k+cLE9bL7X6mEb7KK
LQev/CiR8tvHqQgXu6Rjc/h4S5ZaFlzMAhD6DBeAuW1kMgdFkdD0EeltANJZcQug
LBrp/SwapC1d/6ut+p7tL+4IyzPUqLjnhcnqxD1WY1CxpuVJ5l7JSivSHO6sbHe5
9e1jCfovHkXSmV1prLcxZURaKL82/iCbVQbipnD5zWvFBLCIaTDh+c0UEq1t6Clm
TiDG1pqKxvGXczwWSxScXjiG4Eqr4MsrYAuxY4+7l11X6lcWFqJYADVoOnfjI/jI
XglMcVjPwX/lmkkWKV8cFcdDSKm1/3Gk3NEd4kcztNe/7xe3AgMBAAGjggEkMIIB
IDBzBggrBgEFBQcBAQRnMGUwMQYIKwYBBQUHMAKGJWh0dHA6Ly9jaXNfY2EuZWRn
ZXdvb2QuZWR1L2Npc19jYS5jcnQwMAYIKwYBBQUHMAGGJGh0dHA6Ly9vY3NwLmNp
c19jYS5lZGdld29vZC5lZHU6OTA4MjAfBgNVHSMEGDAWgBSmxTf2J4y6HndiIERw
+5xOXADtpDAMBgNVHRMBAf8EAjAAMDYGA1UdHwQvMC0wK6ApoCeGJWh0dHA6Ly9j
aXNfY2EuZWRnZXdvb2QuZWR1L2Npc19jYS5jcmwwEwYDVR0lBAwwCgYIKwYBBQUH
AwIwDgYDVR0PAQH/BAQDAgeAMB0GA1UdDgQWBBSotUhQjX+W0/PRK2x5ucaPk1tY
HzANBgkqhkiG9w0BAQsFAAOCAgEAmEdFgtgsZ+X3ErY7XaeO6RTEMLh6gKHfXSSG
mF27W6cOoyWgQ6dyBtEWm+IS5QuvWZGMy35+VyJgNznKbLh3/78eNHUrHLNwhZxu
WC6qI5Mlz6RA1i7R1+bpVdbsOSsCcrQ/u3nJzLigVgNmHXkieJsLiXkLHdxPxe0C
lijba67N6GVmJdegHvFM1/1caRukonkCDuTsZoH1LEWn4Hqd6doOqsEBY1GBIXp/
lLh9yDwZ3+u9to+9nuyCwIp0jdiO3ArS+0TTpUvgiLZeVwai1MOpRyf9sQb+IAGv
HYvZgDEZPiUn+02aIAYALK/Jh4UH4K+j31q3apUtdFYfE0U+EAMoKyhlWe01piQ4
UEI4gFRLRKvoUt4tlSBG3kvHyAye7roo63vsHNiyrp8UtU1jiVNVQ574hve/phAl
DmgU6vs+uOpT6KrT5hu7ISVrAWASsgLKsn8jlcTb1PERDVfonQzUFe+4vdDKVKwl
OlhzmPQY0jkJ/wm6YmUcL73ELKNPqbffwgquvGvbBQSprZZF63FZCqcLEq1126mM
6RLy8JsGfJvbKGZc2lwmJabFlwsLO0Xe8VFuJzUVegh+U6kxH5XIigP/het8s8p/
0TG+A55VGrj4XJRxJ2DrUG/LVoiRSf3y5fVkEGPtnJRjVVACosUGjLuSpB/Oew+e
6YK+4AY=
-----END CERTIFICATE-----
