Certificate:
    Data:
        Version: 3 (0x2)
        Serial Number:
            1d:d0:07:1c:80:8f:4e:75:3a:3c:2b:b6:1b:b9:50:74
    Signature Algorithm: sha256WithRSAEncryption
        Issuer: C=US, O=Edgewood College, CN=CIS CA
        Validity
            Not Before: Nov 10 01:59:07 2016 GMT
            Not After : Nov  8 01:59:07 2026 GMT
        Subject: C=US, ST=WI, O=Edgewood College, OU=CIS, CN=Mallory Kling/emailAddress=mkling@edgewood.edu
        Subject Public Key Info:
            Public Key Algorithm: rsaEncryption
                Public-Key: (2048 bit)
                Modulus:
                    00:b2:15:d9:5f:5b:e4:35:00:9a:ad:2f:fb:34:70:
                    5c:fa:c8:84:23:50:92:76:bf:40:92:df:75:15:7e:
                    10:ce:b9:49:96:32:e3:1c:74:54:36:65:3d:c2:98:
                    9a:70:96:63:95:15:f7:d8:a4:2e:01:38:bf:f5:1f:
                    8a:c3:6d:e3:29:2f:7f:9f:6b:e1:ef:43:37:39:85:
                    8d:24:a5:a0:89:99:e9:3d:53:78:31:0f:72:7e:81:
                    3a:0d:a0:1e:56:76:e8:88:d2:7f:07:b4:9a:6e:b1:
                    9b:0d:46:0a:90:0b:52:09:06:e0:62:82:ba:c8:68:
                    25:f6:11:24:75:c5:71:55:4b:04:2a:77:ff:86:59:
                    0a:9e:a5:09:ca:d5:fa:2f:71:b7:15:f9:ff:75:d3:
                    ba:b8:d2:4c:38:6a:68:a0:28:3a:31:64:e6:b2:5b:
                    ac:38:67:e0:7e:bf:29:da:c5:fb:5b:8e:cf:0b:13:
                    80:be:7d:3c:1f:a9:5e:74:a8:07:cf:db:e6:17:c6:
                    27:44:27:82:96:44:a0:bc:07:cf:d6:f7:17:2c:b3:
                    ef:9f:93:bd:f4:72:28:b1:3a:d1:b3:4f:47:5b:1a:
                    87:31:48:7a:5e:ad:79:e8:3c:a6:b5:09:e4:99:db:
                    e4:f3:d1:3e:ea:8b:25:66:cf:1b:09:5f:1a:53:05:
                    54:a1
                Exponent: 65537 (0x10001)
        X509v3 extensions:
            Authority Information Access: 
                CA Issuers - URI:http://cis_ca.edgewood.edu/cis_ca.crt
                OCSP - URI:http://ocsp.cis_ca.edgewood.edu:9082

            X509v3 Authority Key Identifier: 
                keyid:A6:C5:37:F6:27:8C:BA:1E:77:62:20:44:70:FB:9C:4E:5C:00:ED:A4

            X509v3 Basic Constraints: critical
                CA:FALSE
            X509v3 CRL Distribution Points: 

                Full Name:
                  URI:http://cis_ca.edgewood.edu/cis_ca.crl

            X509v3 Extended Key Usage: 
                TLS Web Client Authentication
            X509v3 Key Usage: critical
                Digital Signature
            X509v3 Subject Key Identifier: 
                8E:F6:DB:F6:A4:3F:18:D0:A1:E1:95:83:B7:19:4F:FC:E3:80:DD:B8
    Signature Algorithm: sha256WithRSAEncryption
         56:12:5f:1c:58:9a:a6:84:a0:1c:d0:73:26:a9:4b:58:56:a3:
         eb:6c:af:65:de:91:6a:f8:19:ac:dc:c7:1a:db:83:9b:2a:b9:
         26:d5:07:12:1f:15:c9:3e:98:ba:96:40:9e:3e:80:0d:59:ba:
         44:47:e7:c2:6e:8e:f3:b9:29:ca:09:de:06:8b:d2:41:c5:2e:
         5b:39:14:6e:4d:15:df:81:2d:4d:a1:a0:e9:a7:8e:a1:a5:bb:
         a7:c3:4d:5e:f5:9d:9a:af:81:a8:3d:d3:a8:cc:d3:a7:ce:0f:
         6e:15:cd:44:7e:e2:43:ca:18:a0:c8:c7:b7:85:e5:82:06:0c:
         f1:9e:2e:fb:e4:6b:2e:1e:9e:37:ea:57:8f:29:86:14:d8:46:
         84:63:94:cf:92:a9:5b:f9:b9:22:6c:00:01:c0:b0:2c:76:4a:
         86:72:42:c7:d8:ee:22:1c:bc:9f:d2:56:3c:d2:a2:85:1e:a6:
         50:fa:c4:43:67:65:4c:c5:f2:89:5c:05:a2:17:1e:e5:d9:b8:
         e0:5f:b3:0d:ae:e7:92:16:06:ce:64:72:1f:f1:b2:90:3a:5b:
         3e:56:0c:8e:e1:00:ad:fd:43:db:43:22:3b:c6:46:7a:be:11:
         37:b0:56:12:5c:bb:37:11:6f:13:e9:5a:b8:d4:95:b1:e8:9e:
         a3:c6:5f:ea:77:26:6f:56:7a:1c:27:cf:68:10:05:9e:40:89:
         79:5e:25:0a:21:a7:60:07:fb:77:4b:dc:74:21:d0:6f:2f:2f:
         63:2a:41:98:09:9f:27:c8:22:a3:38:84:ad:19:06:ec:f2:9a:
         56:d0:c2:b1:39:40:0f:b5:33:8d:95:33:9e:68:01:ed:85:7e:
         cd:fc:00:42:d9:d6:1d:39:36:ad:e6:00:47:8d:c7:09:0f:b0:
         c3:23:1c:b1:d7:2f:d7:ae:85:2d:71:3b:ce:8b:65:a1:b0:ad:
         4c:ca:b5:e8:f4:4f:6c:89:be:a4:04:40:76:40:6f:d9:e1:6c:
         dd:a3:54:3c:60:f2:80:5c:45:b0:77:a4:fa:b2:8f:dd:e5:70:
         fe:b9:98:c7:3d:05:04:9e:a9:15:f3:6b:b1:52:da:2f:41:2b:
         d3:61:50:41:07:3a:9a:57:da:64:2d:c3:50:e3:c7:43:8d:f1:
         01:21:df:e6:52:55:55:fa:a4:77:97:b6:57:8c:21:7d:ff:8f:
         35:65:6f:57:c1:62:f6:cd:45:0c:26:a9:e7:4d:9f:a8:23:a1:
         d7:f8:53:89:00:70:32:e7:c0:a8:59:df:2e:b2:b0:84:fe:9a:
         76:ec:7a:1e:c0:45:36:27:3d:66:92:a6:f4:9c:23:fb:11:7b:
         91:46:81:8c:f1:19:33:f9
-----BEGIN CERTIFICATE-----
MIIFaDCCA1CgAwIBAgIQHdAHHICPTnU6PCu2G7lQdDANBgkqhkiG9w0BAQsFADA5
MQswCQYDVQQGEwJVUzEZMBcGA1UECgwQRWRnZXdvb2QgQ29sbGVnZTEPMA0GA1UE
AwwGQ0lTIENBMB4XDTE2MTExMDAxNTkwN1oXDTI2MTEwODAxNTkwN1owfzELMAkG
A1UEBhMCVVMxCzAJBgNVBAgMAldJMRkwFwYDVQQKDBBFZGdld29vZCBDb2xsZWdl
MQwwCgYDVQQLDANDSVMxFjAUBgNVBAMMDU1hbGxvcnkgS2xpbmcxIjAgBgkqhkiG
9w0BCQEWE21rbGluZ0BlZGdld29vZC5lZHUwggEiMA0GCSqGSIb3DQEBAQUAA4IB
DwAwggEKAoIBAQCyFdlfW+Q1AJqtL/s0cFz6yIQjUJJ2v0CS33UVfhDOuUmWMuMc
dFQ2ZT3CmJpwlmOVFffYpC4BOL/1H4rDbeMpL3+fa+HvQzc5hY0kpaCJmek9U3gx
D3J+gToNoB5WduiI0n8HtJpusZsNRgqQC1IJBuBigrrIaCX2ESR1xXFVSwQqd/+G
WQqepQnK1fovcbcV+f9107q40kw4amigKDoxZOayW6w4Z+B+vynaxftbjs8LE4C+
fTwfqV50qAfP2+YXxidEJ4KWRKC8B8/W9xcss++fk730ciixOtGzT0dbGocxSHpe
rXnoPKa1CeSZ2+Tz0T7qiyVmzxsJXxpTBVShAgMBAAGjggEkMIIBIDBzBggrBgEF
BQcBAQRnMGUwMQYIKwYBBQUHMAKGJWh0dHA6Ly9jaXNfY2EuZWRnZXdvb2QuZWR1
L2Npc19jYS5jcnQwMAYIKwYBBQUHMAGGJGh0dHA6Ly9vY3NwLmNpc19jYS5lZGdl
d29vZC5lZHU6OTA4MjAfBgNVHSMEGDAWgBSmxTf2J4y6HndiIERw+5xOXADtpDAM
BgNVHRMBAf8EAjAAMDYGA1UdHwQvMC0wK6ApoCeGJWh0dHA6Ly9jaXNfY2EuZWRn
ZXdvb2QuZWR1L2Npc19jYS5jcmwwEwYDVR0lBAwwCgYIKwYBBQUHAwIwDgYDVR0P
AQH/BAQDAgeAMB0GA1UdDgQWBBSO9tv2pD8Y0KHhlYO3GU/844DduDANBgkqhkiG
9w0BAQsFAAOCAgEAVhJfHFiapoSgHNBzJqlLWFaj62yvZd6RavgZrNzHGtuDmyq5
JtUHEh8VyT6YupZAnj6ADVm6REfnwm6O87kpygneBovSQcUuWzkUbk0V34EtTaGg
6aeOoaW7p8NNXvWdmq+BqD3TqMzTp84PbhXNRH7iQ8oYoMjHt4XlggYM8Z4u++Rr
Lh6eN+pXjymGFNhGhGOUz5KpW/m5ImwAAcCwLHZKhnJCx9juIhy8n9JWPNKihR6m
UPrEQ2dlTMXyiVwFohce5dm44F+zDa7nkhYGzmRyH/GykDpbPlYMjuEArf1D20Mi
O8ZGer4RN7BWEly7NxFvE+lauNSVseieo8Zf6ncmb1Z6HCfPaBAFnkCJeV4lCiGn
YAf7d0vcdCHQby8vYypBmAmfJ8gioziErRkG7PKaVtDCsTlAD7UzjZUznmgB7YV+
zfwAQtnWHTk2reYAR43HCQ+wwyMcsdcv166FLXE7zotlobCtTMq16PRPbIm+pARA
dkBv2eFs3aNUPGDygFxFsHek+rKP3eVw/rmYxz0FBJ6pFfNrsVLaL0Er02FQQQc6
mlfaZC3DUOPHQ43xASHf5lJVVfqkd5e2V4whff+PNWVvV8Fi9s1FDCap502fqCOh
1/hTiQBwMufAqFnfLrKwhP6adux6HsBFNic9ZpKm9Jwj+xF7kUaBjPEZM/k=
-----END CERTIFICATE-----
