Certificate:
    Data:
        Version: 3 (0x2)
        Serial Number:
            1d:d0:07:1c:80:8f:4e:75:3a:3c:2b:b6:1b:b9:50:6c
    Signature Algorithm: sha256WithRSAEncryption
        Issuer: C=US, O=Edgewood College, CN=CIS CA
        Validity
            Not Before: Nov  9 16:17:31 2016 GMT
            Not After : Nov  7 16:17:31 2026 GMT
        Subject: C=US, ST=WI, O=Edgewood College, OU=CIS, CN=Xianping Wang/emailAddress=xiawang@edgewood.edu
        Subject Public Key Info:
            Public Key Algorithm: rsaEncryption
                Public-Key: (2048 bit)
                Modulus:
                    00:9f:bf:30:5e:52:4f:ba:4a:be:a1:f4:0b:54:a9:
                    b9:cc:fa:3d:a5:24:2d:7e:8c:d4:41:04:61:d9:1a:
                    1b:91:00:42:00:9a:d9:d9:72:db:6f:a9:dc:cd:a2:
                    d9:66:3e:06:3b:f5:bc:89:d8:af:4e:88:db:a9:0b:
                    55:58:d8:00:bf:fb:c0:7c:a4:c9:54:8c:a2:01:0d:
                    c6:f1:a3:f8:ac:e5:33:a2:c6:78:5f:bd:24:66:e8:
                    1f:08:d8:06:23:e5:7d:3a:8f:2a:11:3d:9c:b4:9f:
                    ae:fc:79:c7:78:cf:95:73:de:5a:45:e8:0f:7a:29:
                    00:f8:c5:5f:5f:35:6c:ce:1a:63:41:ac:88:43:d6:
                    17:26:6d:fc:8a:03:a9:94:3e:7d:cc:14:40:29:39:
                    fd:d9:9b:c4:f2:c2:3a:79:74:b6:b3:fd:02:8d:f0:
                    84:c1:82:8e:c1:7d:5e:54:53:68:fa:be:39:66:b0:
                    da:8b:bb:73:2a:ee:70:2c:84:44:c1:8a:f7:65:9b:
                    30:c8:b6:a2:3f:03:76:d2:15:7c:bc:9a:ba:4c:93:
                    79:1c:4a:1f:7f:1e:ec:76:03:e0:19:2e:5e:08:71:
                    7f:60:11:9d:90:c6:1d:fe:7c:92:ac:2e:e2:ea:fe:
                    de:3b:c7:ff:9b:4b:61:6a:39:e9:b1:63:d2:50:cb:
                    84:af
                Exponent: 65537 (0x10001)
        X509v3 extensions:
            Authority Information Access: 
                CA Issuers - URI:http://cis_ca.edgewood.edu/cis_ca.crt
                OCSP - URI:http://ocsp.cis_ca.edgewood.edu:9082

            X509v3 Authority Key Identifier: 
                keyid:A6:C5:37:F6:27:8C:BA:1E:77:62:20:44:70:FB:9C:4E:5C:00:ED:A4

            X509v3 Basic Constraints: critical
                CA:FALSE
            X509v3 CRL Distribution Points: 

                Full Name:
                  URI:http://cis_ca.edgewood.edu/cis_ca.crl

            X509v3 Extended Key Usage: 
                TLS Web Client Authentication, TLS Web Server Authentication
            X509v3 Key Usage: critical
                Digital Signature, Key Encipherment
            X509v3 Subject Key Identifier: 
                E2:26:69:AF:A8:A7:F9:10:C3:91:B6:65:79:C8:3F:2A:A1:3B:57:55
    Signature Algorithm: sha256WithRSAEncryption
         5c:4f:95:4e:94:84:5d:9e:3e:17:5f:b0:c9:a3:2f:b4:51:9b:
         35:30:0f:a1:d9:5a:5f:b1:e5:4a:c7:82:b2:f8:13:ef:03:4b:
         fa:89:13:ca:dd:57:e3:ae:58:a2:16:e5:09:1f:d6:4a:3f:14:
         d1:9b:ac:75:54:5d:f3:d6:75:96:74:b2:0a:59:27:c2:6d:8c:
         36:8d:01:06:a3:b4:a0:80:42:78:7d:8d:f2:26:24:f9:87:86:
         6a:c4:88:98:be:e6:df:79:a0:f7:79:3d:7f:52:ff:a9:8a:98:
         e3:e2:90:01:d7:07:ed:7d:7c:7c:9e:b4:71:e8:52:26:83:80:
         fe:33:32:7b:cd:d1:a5:6c:05:fb:61:2b:cd:62:e1:ad:2a:49:
         d7:6e:7d:ca:7c:28:f3:f9:e4:09:6e:49:10:63:bf:ad:a9:33:
         88:17:29:64:21:13:99:b7:4a:9c:a0:c9:eb:93:57:48:95:67:
         18:79:fc:3d:08:3b:54:15:c0:e8:08:ec:be:35:6c:41:8f:04:
         fc:8e:f1:d3:d2:8d:43:77:87:d8:82:5c:45:34:0a:9b:1d:2d:
         68:cc:68:de:ed:2e:7b:0b:88:2a:2f:8a:bf:83:04:ca:0a:11:
         0d:6b:b0:f1:63:19:82:59:91:93:cf:dc:57:c9:57:03:93:d0:
         86:62:ba:0a:f0:4a:fd:a3:53:1f:84:4c:eb:d6:1e:c3:f7:ef:
         90:56:0c:3f:d5:00:13:c1:b5:53:ab:a7:a7:97:6d:cd:a9:f9:
         72:9d:34:0b:42:03:69:d4:38:13:a4:ce:4c:bc:ad:67:0e:e8:
         de:81:b0:b0:13:10:f0:f7:12:1d:de:46:3c:f4:0f:d7:91:e3:
         ca:bf:e5:70:98:8d:37:7c:10:83:99:14:54:d9:08:2e:c3:2c:
         80:46:be:55:29:7e:9c:07:ac:d9:c5:71:b3:b8:59:10:4a:40:
         84:21:eb:36:67:60:cb:93:d5:9c:31:72:58:d5:de:a2:00:ae:
         9b:24:49:66:df:f6:1a:00:46:93:0e:0b:e9:91:7c:43:16:87:
         27:b3:ac:58:bd:6d:68:e9:8e:39:7c:eb:cb:30:f8:f1:5c:de:
         ed:da:d8:56:e3:93:de:f8:e1:a7:e6:d7:23:bc:7c:74:72:f6:
         03:03:3b:1d:2a:6a:c4:78:6d:bd:e8:16:ed:78:ae:5d:74:98:
         5c:46:18:1b:73:c3:50:81:58:67:1a:f5:56:ec:7b:f3:25:d2:
         c6:fd:ba:ed:90:41:7c:37:c8:e4:b0:34:ad:c6:69:a6:41:41:
         1e:0a:5b:68:af:98:a9:ae:98:42:fd:df:57:cd:99:a4:0a:47:
         b0:81:a1:d9:6b:70:d2:04
-----BEGIN CERTIFICATE-----
MIIFdDCCA1ygAwIBAgIQHdAHHICPTnU6PCu2G7lQbDANBgkqhkiG9w0BAQsFADA5
MQswCQYDVQQGEwJVUzEZMBcGA1UECgwQRWRnZXdvb2QgQ29sbGVnZTEPMA0GA1UE
AwwGQ0lTIENBMB4XDTE2MTEwOTE2MTczMVoXDTI2MTEwNzE2MTczMVowgYAxCzAJ
BgNVBAYTAlVTMQswCQYDVQQIDAJXSTEZMBcGA1UECgwQRWRnZXdvb2QgQ29sbGVn
ZTEMMAoGA1UECwwDQ0lTMRYwFAYDVQQDDA1YaWFucGluZyBXYW5nMSMwIQYJKoZI
hvcNAQkBFhR4aWF3YW5nQGVkZ2V3b29kLmVkdTCCASIwDQYJKoZIhvcNAQEBBQAD
ggEPADCCAQoCggEBAJ+/MF5ST7pKvqH0C1Spucz6PaUkLX6M1EEEYdkaG5EAQgCa
2dly22+p3M2i2WY+Bjv1vInYr06I26kLVVjYAL/7wHykyVSMogENxvGj+KzlM6LG
eF+9JGboHwjYBiPlfTqPKhE9nLSfrvx5x3jPlXPeWkXoD3opAPjFX181bM4aY0Gs
iEPWFyZt/IoDqZQ+fcwUQCk5/dmbxPLCOnl0trP9Ao3whMGCjsF9XlRTaPq+OWaw
2ou7cyrucCyERMGK92WbMMi2oj8DdtIVfLyaukyTeRxKH38e7HYD4BkuXghxf2AR
nZDGHf58kqwu4ur+3jvH/5tLYWo56bFj0lDLhK8CAwEAAaOCAS4wggEqMHMGCCsG
AQUFBwEBBGcwZTAxBggrBgEFBQcwAoYlaHR0cDovL2Npc19jYS5lZGdld29vZC5l
ZHUvY2lzX2NhLmNydDAwBggrBgEFBQcwAYYkaHR0cDovL29jc3AuY2lzX2NhLmVk
Z2V3b29kLmVkdTo5MDgyMB8GA1UdIwQYMBaAFKbFN/YnjLoed2IgRHD7nE5cAO2k
MAwGA1UdEwEB/wQCMAAwNgYDVR0fBC8wLTAroCmgJ4YlaHR0cDovL2Npc19jYS5l
ZGdld29vZC5lZHUvY2lzX2NhLmNybDAdBgNVHSUEFjAUBggrBgEFBQcDAgYIKwYB
BQUHAwEwDgYDVR0PAQH/BAQDAgWgMB0GA1UdDgQWBBTiJmmvqKf5EMORtmV5yD8q
oTtXVTANBgkqhkiG9w0BAQsFAAOCAgEAXE+VTpSEXZ4+F1+wyaMvtFGbNTAPodla
X7HlSseCsvgT7wNL+okTyt1X465YohblCR/WSj8U0ZusdVRd89Z1lnSyClknwm2M
No0BBqO0oIBCeH2N8iYk+YeGasSImL7m33mg93k9f1L/qYqY4+KQAdcH7X18fJ60
cehSJoOA/jMye83RpWwF+2ErzWLhrSpJ1259ynwo8/nkCW5JEGO/rakziBcpZCET
mbdKnKDJ65NXSJVnGHn8PQg7VBXA6AjsvjVsQY8E/I7x09KNQ3eH2IJcRTQKmx0t
aMxo3u0uewuIKi+Kv4MEygoRDWuw8WMZglmRk8/cV8lXA5PQhmK6CvBK/aNTH4RM
69Yew/fvkFYMP9UAE8G1U6unp5dtzan5cp00C0IDadQ4E6TOTLytZw7o3oGwsBMQ
8PcSHd5GPPQP15Hjyr/lcJiNN3wQg5kUVNkILsMsgEa+VSl+nAes2cVxs7hZEEpA
hCHrNmdgy5PVnDFyWNXeogCumyRJZt/2GgBGkw4L6ZF8QxaHJ7OsWL1taOmOOXzr
yzD48Vze7drYVuOT3vjhp+bXI7x8dHL2AwM7HSpqxHhtvegW7XiuXXSYXEYYG3PD
UIFYZxr1Vux78yXSxv267ZBBfDfI5LA0rcZppkFBHgpbaK+Yqa6YQv3fV82ZpApH
sIGh2Wtw0gQ=
-----END CERTIFICATE-----
