Certificate:
    Data:
        Version: 3 (0x2)
        Serial Number:
            1d:d0:07:1c:80:8f:4e:75:3a:3c:2b:b6:1b:b9:50:7b
    Signature Algorithm: sha256WithRSAEncryption
        Issuer: C=US, O=Edgewood College, CN=CIS CA
        Validity
            Not Before: Nov 15 15:34:34 2016 GMT
            Not After : Nov 13 15:34:34 2026 GMT
        Subject: C=US, ST=WI, O=Edgewood College, OU=CIS, CN=Janna Scholl/emailAddress=JScholl@edgewood.edu
        Subject Public Key Info:
            Public Key Algorithm: rsaEncryption
                Public-Key: (2048 bit)
                Modulus:
                    00:d9:ce:c7:c5:a7:01:fb:da:1a:81:f3:4d:b6:d0:
                    3d:88:20:92:ef:b5:8d:45:4f:33:a3:4c:ca:03:55:
                    32:7b:d9:72:f4:23:b2:10:fc:00:8f:2b:5f:1c:b7:
                    bd:3b:18:66:7f:3a:13:76:88:6f:e4:4b:a8:dd:2a:
                    fb:11:ca:1b:ea:b2:b1:99:31:b4:1a:6b:76:7d:fd:
                    ec:31:cd:93:df:73:27:57:09:bc:af:24:da:60:ea:
                    7e:69:ea:d7:35:55:e1:f6:e2:2e:6a:a4:cc:1a:e3:
                    4c:fa:98:88:3a:da:80:3c:96:67:12:5a:6b:d0:16:
                    44:2e:4d:57:72:73:30:aa:1e:fb:ea:01:d4:bf:16:
                    f0:30:a3:1a:f9:86:b2:5f:82:d3:21:75:e4:3f:bc:
                    4f:61:6d:46:56:8a:7c:82:e9:fb:1b:57:43:5e:67:
                    02:6f:cf:1c:85:e7:c8:00:7e:09:a1:ad:95:e9:db:
                    f1:34:6e:56:d2:54:cc:68:d2:fd:54:a7:95:b1:a9:
                    73:94:96:53:30:2b:77:4a:ef:f7:c5:9e:44:d9:f4:
                    9d:15:03:71:84:1e:89:e9:2e:5a:cc:62:95:2c:dd:
                    ae:ca:c2:71:ae:e5:f0:7b:f0:18:c3:62:49:6e:69:
                    fe:48:bc:b1:29:0d:d6:55:4b:7c:84:ba:6a:5b:72:
                    c4:e5
                Exponent: 65537 (0x10001)
        X509v3 extensions:
            Authority Information Access: 
                CA Issuers - URI:http://cis_ca.edgewood.edu/cis_ca.crt
                OCSP - URI:http://ocsp.cis_ca.edgewood.edu:9082

            X509v3 Authority Key Identifier: 
                keyid:A6:C5:37:F6:27:8C:BA:1E:77:62:20:44:70:FB:9C:4E:5C:00:ED:A4

            X509v3 Basic Constraints: critical
                CA:FALSE
            X509v3 CRL Distribution Points: 

                Full Name:
                  URI:http://cis_ca.edgewood.edu/cis_ca.crl

            X509v3 Extended Key Usage: 
                TLS Web Client Authentication
            X509v3 Key Usage: critical
                Digital Signature
            X509v3 Subject Key Identifier: 
                E8:B0:5E:FB:94:0A:41:36:B3:DA:80:FE:8F:EE:03:10:4D:6B:DB:E2
    Signature Algorithm: sha256WithRSAEncryption
         4b:f9:80:44:ed:a5:d5:51:75:bf:bd:c1:18:24:0f:22:1c:a8:
         7a:0e:3b:0e:7b:06:e9:59:56:b1:0d:0a:13:31:65:11:37:0f:
         92:da:54:70:fb:3e:8e:76:9f:8b:c4:63:b9:c2:3a:07:72:6d:
         a9:d3:5b:aa:84:a2:a5:a8:09:7b:3a:ff:2c:9c:32:59:fe:46:
         5a:64:7a:84:27:e0:30:04:26:d4:5f:75:1c:df:8c:db:ad:97:
         84:00:0e:8c:1b:c2:56:15:d8:fb:7f:c9:c0:68:d0:e8:40:de:
         0e:2b:62:0a:fd:69:75:bb:9a:f8:53:c8:6f:d9:fd:3d:40:2a:
         9b:e1:64:c6:ed:2f:6c:9e:da:47:fc:bb:0e:53:dc:4b:a4:63:
         50:eb:6b:f0:7c:08:63:30:af:fb:7a:0a:cd:c5:c0:c5:c3:b8:
         f1:48:81:70:2d:f1:af:a6:57:76:9c:35:ed:fc:9d:4b:3b:39:
         e5:32:5f:1d:11:06:da:da:df:98:8c:b5:90:fc:a1:5c:f5:58:
         0b:df:f7:3a:0f:6e:ec:3c:b0:61:65:ef:c1:60:1d:e6:ab:d4:
         2e:f6:81:46:a1:11:19:33:e4:3e:1f:82:4d:55:c7:8d:ba:f1:
         25:1a:ea:2d:27:cd:be:ff:e4:51:d8:ce:1b:df:2f:c2:dc:ce:
         59:61:c0:7b:29:1e:24:e7:70:00:4d:34:bf:4f:05:4e:24:f6:
         5f:09:f1:bf:04:94:6c:1c:fd:f3:e5:0d:c4:34:99:92:ff:b3:
         18:ac:7d:5a:02:37:0c:d8:94:bb:d6:a6:fc:22:c3:32:21:03:
         3e:0b:ad:55:c7:76:ae:bf:17:2d:04:fc:f5:55:e0:3a:45:63:
         66:b1:9f:68:50:0d:fa:c7:52:42:5c:f6:71:bb:43:49:62:59:
         17:4b:4d:d3:38:39:2b:21:98:c1:ea:60:04:b6:5e:3c:f1:c4:
         c1:56:5d:d9:e3:59:05:2a:a2:6a:fa:df:92:ff:e3:fd:88:08:
         21:79:6c:e7:9c:2e:f4:69:8a:af:48:88:0e:5c:9d:06:89:02:
         ee:59:a4:31:be:72:3a:2b:88:2c:0b:92:f0:de:78:fb:23:e4:
         90:42:ae:da:7e:25:82:86:33:37:ae:7d:3c:aa:ad:b5:47:de:
         a7:39:89:4f:87:03:6a:e7:af:4e:c4:93:87:5f:a3:99:4d:f4:
         3f:d2:c1:22:6f:49:16:fe:9f:58:ed:de:1f:e3:a4:4a:91:91:
         97:fb:fe:1b:be:01:50:3f:38:f7:5f:b0:f6:e1:f6:d4:fb:c2:
         09:65:82:36:f2:ff:65:13:2c:c7:1a:a2:3d:d7:7e:f7:13:41:
         4a:f9:15:c5:85:b5:47:4a
-----BEGIN CERTIFICATE-----
MIIFaDCCA1CgAwIBAgIQHdAHHICPTnU6PCu2G7lQezANBgkqhkiG9w0BAQsFADA5
MQswCQYDVQQGEwJVUzEZMBcGA1UECgwQRWRnZXdvb2QgQ29sbGVnZTEPMA0GA1UE
AwwGQ0lTIENBMB4XDTE2MTExNTE1MzQzNFoXDTI2MTExMzE1MzQzNFowfzELMAkG
A1UEBhMCVVMxCzAJBgNVBAgMAldJMRkwFwYDVQQKDBBFZGdld29vZCBDb2xsZWdl
MQwwCgYDVQQLDANDSVMxFTATBgNVBAMMDEphbm5hIFNjaG9sbDEjMCEGCSqGSIb3
DQEJARYUSlNjaG9sbEBlZGdld29vZC5lZHUwggEiMA0GCSqGSIb3DQEBAQUAA4IB
DwAwggEKAoIBAQDZzsfFpwH72hqB80220D2IIJLvtY1FTzOjTMoDVTJ72XL0I7IQ
/ACPK18ct707GGZ/OhN2iG/kS6jdKvsRyhvqsrGZMbQaa3Z9/ewxzZPfcydXCbyv
JNpg6n5p6tc1VeH24i5qpMwa40z6mIg62oA8lmcSWmvQFkQuTVdyczCqHvvqAdS/
FvAwoxr5hrJfgtMhdeQ/vE9hbUZWinyC6fsbV0NeZwJvzxyF58gAfgmhrZXp2/E0
blbSVMxo0v1Up5WxqXOUllMwK3dK7/fFnkTZ9J0VA3GEHonpLlrMYpUs3a7KwnGu
5fB78BjDYkluaf5IvLEpDdZVS3yEumpbcsTlAgMBAAGjggEkMIIBIDBzBggrBgEF
BQcBAQRnMGUwMQYIKwYBBQUHMAKGJWh0dHA6Ly9jaXNfY2EuZWRnZXdvb2QuZWR1
L2Npc19jYS5jcnQwMAYIKwYBBQUHMAGGJGh0dHA6Ly9vY3NwLmNpc19jYS5lZGdl
d29vZC5lZHU6OTA4MjAfBgNVHSMEGDAWgBSmxTf2J4y6HndiIERw+5xOXADtpDAM
BgNVHRMBAf8EAjAAMDYGA1UdHwQvMC0wK6ApoCeGJWh0dHA6Ly9jaXNfY2EuZWRn
ZXdvb2QuZWR1L2Npc19jYS5jcmwwEwYDVR0lBAwwCgYIKwYBBQUHAwIwDgYDVR0P
AQH/BAQDAgeAMB0GA1UdDgQWBBTosF77lApBNrPagP6P7gMQTWvb4jANBgkqhkiG
9w0BAQsFAAOCAgEAS/mARO2l1VF1v73BGCQPIhyoeg47DnsG6VlWsQ0KEzFlETcP
ktpUcPs+jnafi8RjucI6B3JtqdNbqoSipagJezr/LJwyWf5GWmR6hCfgMAQm1F91
HN+M262XhAAOjBvCVhXY+3/JwGjQ6EDeDitiCv1pdbua+FPIb9n9PUAqm+Fkxu0v
bJ7aR/y7DlPcS6RjUOtr8HwIYzCv+3oKzcXAxcO48UiBcC3xr6ZXdpw17fydSzs5
5TJfHREG2trfmIy1kPyhXPVYC9/3Og9u7DywYWXvwWAd5qvULvaBRqERGTPkPh+C
TVXHjbrxJRrqLSfNvv/kUdjOG98vwtzOWWHAeykeJOdwAE00v08FTiT2XwnxvwSU
bBz98+UNxDSZkv+zGKx9WgI3DNiUu9am/CLDMiEDPgutVcd2rr8XLQT89VXgOkVj
ZrGfaFAN+sdSQlz2cbtDSWJZF0tN0zg5KyGYwepgBLZePPHEwVZd2eNZBSqiavrf
kv/j/YgIIXls55wu9GmKr0iIDlydBokC7lmkMb5yOiuILAuS8N54+yPkkEKu2n4l
goYzN659PKqttUfepzmJT4cDauevTsSTh1+jmU30P9LBIm9JFv6fWO3eH+OkSpGR
l/v+G74BUD8491+w9uH21PvCCWWCNvL/ZRMsxxqiPdd+9xNBSvkVxYW1R0o=
-----END CERTIFICATE-----
