Certificate:
    Data:
        Version: 3 (0x2)
        Serial Number:
            1d:d0:07:1c:80:8f:4e:75:3a:3c:2b:b6:1b:b9:50:78
    Signature Algorithm: sha256WithRSAEncryption
        Issuer: C=US, O=Edgewood College, CN=CIS CA
        Validity
            Not Before: Nov 14 21:16:06 2016 GMT
            Not After : Nov 12 21:16:06 2026 GMT
        Subject: C=US, ST=Wisconsin, O=Edgewood College, OU=CIS, CN=Arik Anderson/emailAddress=ajanderson@edgewood.edu
        Subject Public Key Info:
            Public Key Algorithm: rsaEncryption
                Public-Key: (2048 bit)
                Modulus:
                    00:cf:5f:d5:a0:b0:39:92:c8:f6:46:0e:ef:2d:f1:
                    2e:15:50:6e:9b:13:f0:c4:5a:26:9d:06:4e:2e:26:
                    44:48:b3:ec:ac:ef:f9:6f:7f:33:e0:b1:b3:15:46:
                    fd:fa:c4:8a:1c:f0:48:fd:42:dc:f4:f1:a2:ec:03:
                    14:f2:0c:d1:2f:2e:1e:55:06:3d:f2:f0:03:ad:1c:
                    c4:e0:24:77:49:de:d9:69:44:36:52:56:0a:c6:0c:
                    88:6b:c6:1a:2e:c4:88:17:9b:08:d9:25:a9:2f:4c:
                    45:e5:52:f9:8a:71:09:41:8a:41:53:67:12:4d:17:
                    60:1c:26:53:c6:6b:74:0b:34:06:56:af:50:19:35:
                    aa:25:63:cc:30:d0:7d:4c:51:17:bf:91:9a:31:ae:
                    26:6a:a8:a3:93:ec:e2:77:83:d9:f5:58:e1:1d:01:
                    69:ba:f7:b5:ef:38:0b:59:89:6d:3c:58:40:e3:9e:
                    14:5d:74:ba:50:9c:54:68:7f:33:e0:88:83:db:75:
                    35:bb:fd:ca:af:37:c6:b4:f6:59:b9:0c:8d:0e:48:
                    65:e5:eb:77:5d:60:4a:26:b7:09:16:79:62:2d:6e:
                    22:e0:8e:a0:d6:d6:1d:bd:ce:e0:6c:b1:af:ec:2a:
                    a7:c7:14:b8:3a:2f:69:a7:2c:ca:29:e2:dc:94:cd:
                    fd:97
                Exponent: 65537 (0x10001)
        X509v3 extensions:
            Authority Information Access: 
                CA Issuers - URI:http://cis_ca.edgewood.edu/cis_ca.crt
                OCSP - URI:http://ocsp.cis_ca.edgewood.edu:9082

            X509v3 Authority Key Identifier: 
                keyid:A6:C5:37:F6:27:8C:BA:1E:77:62:20:44:70:FB:9C:4E:5C:00:ED:A4

            X509v3 Basic Constraints: critical
                CA:FALSE
            X509v3 CRL Distribution Points: 

                Full Name:
                  URI:http://cis_ca.edgewood.edu/cis_ca.crl

            X509v3 Extended Key Usage: 
                TLS Web Client Authentication
            X509v3 Key Usage: critical
                Digital Signature
            X509v3 Subject Key Identifier: 
                1C:C7:80:45:73:FA:53:76:45:F4:45:43:4D:6D:02:77:DC:E2:D3:2A
    Signature Algorithm: sha256WithRSAEncryption
         61:bf:36:f8:ef:ee:c3:c4:4b:a3:ad:6c:97:34:ad:2f:e8:9a:
         8e:76:9e:af:b9:9d:b1:0f:5b:18:06:57:d0:14:0f:36:01:a7:
         f1:5f:84:f4:8e:25:fa:03:a8:90:90:e9:9d:24:ca:93:73:14:
         c4:47:71:ef:10:ea:88:63:a6:be:7d:aa:a1:6c:d9:ce:77:da:
         db:31:64:4e:e5:37:d8:ba:b1:63:6a:60:de:af:a5:87:6f:2d:
         1a:c0:28:05:86:3c:0b:51:ec:5b:55:db:a9:78:29:40:9f:9b:
         f6:69:94:52:d6:85:b6:e7:f6:57:59:8c:90:b8:4e:ba:96:53:
         e1:2e:b9:df:fe:39:a6:39:cc:f6:44:2e:33:7f:2a:c7:89:1c:
         47:69:15:c0:b9:05:0b:1c:1d:7d:68:18:fb:15:9d:ba:40:c2:
         c3:9b:4b:33:ce:72:f8:68:79:cd:cc:6e:6d:f1:4c:fb:7a:c9:
         58:c8:f6:43:cd:9d:2c:da:df:62:d3:09:cd:4a:00:f7:f8:2c:
         38:cc:ce:4d:65:d5:45:94:38:61:9b:44:32:8b:f9:cb:64:c1:
         20:4e:42:8b:7b:cb:52:42:dd:bd:65:0d:68:75:71:3f:ee:c5:
         ae:e2:9f:1c:c0:f1:94:13:f0:64:2d:e7:83:1d:c9:73:3d:14:
         8d:75:d6:39:c5:d7:7c:10:e3:a8:86:60:c5:04:cb:00:ea:14:
         5d:58:03:5d:a6:cc:8c:7b:5a:c0:17:7a:ee:05:e1:26:d1:77:
         9f:da:6d:10:03:86:a4:a0:29:5c:9e:99:ed:e1:4c:f8:83:36:
         d2:76:27:63:37:e9:65:1c:5f:4c:57:85:43:70:2c:31:1a:d3:
         3f:65:03:74:5b:01:24:b1:ac:a5:6c:b5:1d:56:62:ae:09:04:
         da:78:48:f6:31:5f:39:d9:7d:ec:9d:a2:a0:79:71:23:f4:a4:
         ff:7a:bd:7b:b9:72:0f:50:dd:a6:73:dc:67:6c:39:63:3b:f9:
         15:54:30:53:a0:5d:26:c6:1b:ea:b9:5f:4d:10:8a:2c:d0:2c:
         47:af:2c:e5:ea:fc:54:88:6e:8c:23:c5:e7:91:87:48:e7:be:
         b3:37:11:d9:19:fc:d9:fd:f0:ec:ef:37:e5:bc:c3:8f:7b:6c:
         ae:39:c2:3c:50:ca:19:28:85:d2:d4:30:65:fd:2b:30:dd:fd:
         f3:ef:0b:ee:1f:da:59:87:ae:f7:81:90:cd:b1:bb:a0:37:ae:
         42:03:24:58:6d:8b:a8:a6:97:8d:5a:80:cb:c1:8d:61:d0:4b:
         aa:13:51:92:7a:fb:56:c7:4b:bb:f6:65:47:d6:1b:fe:82:8e:
         94:61:be:4a:b4:e9:fe:3d
-----BEGIN CERTIFICATE-----
MIIFdDCCA1ygAwIBAgIQHdAHHICPTnU6PCu2G7lQeDANBgkqhkiG9w0BAQsFADA5
MQswCQYDVQQGEwJVUzEZMBcGA1UECgwQRWRnZXdvb2QgQ29sbGVnZTEPMA0GA1UE
AwwGQ0lTIENBMB4XDTE2MTExNDIxMTYwNloXDTI2MTExMjIxMTYwNlowgYoxCzAJ
BgNVBAYTAlVTMRIwEAYDVQQIDAlXaXNjb25zaW4xGTAXBgNVBAoMEEVkZ2V3b29k
IENvbGxlZ2UxDDAKBgNVBAsMA0NJUzEWMBQGA1UEAwwNQXJpayBBbmRlcnNvbjEm
MCQGCSqGSIb3DQEJARYXYWphbmRlcnNvbkBlZGdld29vZC5lZHUwggEiMA0GCSqG
SIb3DQEBAQUAA4IBDwAwggEKAoIBAQDPX9WgsDmSyPZGDu8t8S4VUG6bE/DEWiad
Bk4uJkRIs+ys7/lvfzPgsbMVRv36xIoc8Ej9Qtz08aLsAxTyDNEvLh5VBj3y8AOt
HMTgJHdJ3tlpRDZSVgrGDIhrxhouxIgXmwjZJakvTEXlUvmKcQlBikFTZxJNF2Ac
JlPGa3QLNAZWr1AZNaolY8ww0H1MURe/kZoxriZqqKOT7OJ3g9n1WOEdAWm697Xv
OAtZiW08WEDjnhRddLpQnFRofzPgiIPbdTW7/cqvN8a09lm5DI0OSGXl63ddYEom
twkWeWItbiLgjqDW1h29zuBssa/sKqfHFLg6L2mnLMop4tyUzf2XAgMBAAGjggEk
MIIBIDBzBggrBgEFBQcBAQRnMGUwMQYIKwYBBQUHMAKGJWh0dHA6Ly9jaXNfY2Eu
ZWRnZXdvb2QuZWR1L2Npc19jYS5jcnQwMAYIKwYBBQUHMAGGJGh0dHA6Ly9vY3Nw
LmNpc19jYS5lZGdld29vZC5lZHU6OTA4MjAfBgNVHSMEGDAWgBSmxTf2J4y6Hndi
IERw+5xOXADtpDAMBgNVHRMBAf8EAjAAMDYGA1UdHwQvMC0wK6ApoCeGJWh0dHA6
Ly9jaXNfY2EuZWRnZXdvb2QuZWR1L2Npc19jYS5jcmwwEwYDVR0lBAwwCgYIKwYB
BQUHAwIwDgYDVR0PAQH/BAQDAgeAMB0GA1UdDgQWBBQcx4BFc/pTdkX0RUNNbQJ3
3OLTKjANBgkqhkiG9w0BAQsFAAOCAgEAYb82+O/uw8RLo61slzStL+iajnaer7md
sQ9bGAZX0BQPNgGn8V+E9I4l+gOokJDpnSTKk3MUxEdx7xDqiGOmvn2qoWzZznfa
2zFkTuU32LqxY2pg3q+lh28tGsAoBYY8C1HsW1XbqXgpQJ+b9mmUUtaFtuf2V1mM
kLhOupZT4S653/45pjnM9kQuM38qx4kcR2kVwLkFCxwdfWgY+xWdukDCw5tLM85y
+Gh5zcxubfFM+3rJWMj2Q82dLNrfYtMJzUoA9/gsOMzOTWXVRZQ4YZtEMov5y2TB
IE5Ci3vLUkLdvWUNaHVxP+7FruKfHMDxlBPwZC3ngx3Jcz0UjXXWOcXXfBDjqIZg
xQTLAOoUXVgDXabMjHtawBd67gXhJtF3n9ptEAOGpKApXJ6Z7eFM+IM20nYnYzfp
ZRxfTFeFQ3AsMRrTP2UDdFsBJLGspWy1HVZirgkE2nhI9jFfOdl97J2ioHlxI/Sk
/3q9e7lyD1DdpnPcZ2w5Yzv5FVQwU6BdJsYb6rlfTRCKLNAsR68s5er8VIhujCPF
55GHSOe+szcR2Rn82f3w7O835bzDj3tsrjnCPFDKGSiF0tQwZf0rMN398+8L7h/a
WYeu94GQzbG7oDeuQgMkWG2LqKaXjVqAy8GNYdBLqhNRknr7VsdLu/ZlR9Yb/oKO
lGG+SrTp/j0=
-----END CERTIFICATE-----
