Certificate:
    Data:
        Version: 3 (0x2)
        Serial Number:
            1d:d0:07:1c:80:8f:4e:75:3a:3c:2b:b6:1b:b9:50:71
    Signature Algorithm: sha256WithRSAEncryption
        Issuer: C=US, O=Edgewood College, CN=CIS CA
        Validity
            Not Before: Nov  9 21:41:19 2016 GMT
            Not After : Nov  7 21:41:19 2026 GMT
        Subject: C=US, ST=WI, O=Edgewood College, OU=CIS, CN=Suha/emailAddress=Salaqil@edgewood.edu
        Subject Public Key Info:
            Public Key Algorithm: rsaEncryption
                Public-Key: (2048 bit)
                Modulus:
                    00:b2:41:ae:ce:ee:7a:d4:a7:21:3a:df:84:56:05:
                    d3:8b:37:d9:b1:3f:28:29:69:0c:80:36:64:24:96:
                    fb:fc:fc:bb:ae:a8:23:83:ca:41:ad:3e:89:4f:d6:
                    a9:46:72:29:87:1c:fc:2e:f0:c1:d1:af:73:5b:4d:
                    b4:ad:60:8e:3a:2b:ac:df:ac:86:b9:3f:72:8e:17:
                    79:97:05:69:3a:55:fb:18:09:96:c4:d4:e9:5e:7e:
                    0e:03:a7:12:7e:40:30:41:d6:df:f0:3c:7b:b0:ec:
                    d3:e7:56:d7:64:52:d1:e8:7f:f0:76:f1:92:b5:1b:
                    6d:55:f0:b2:d4:a7:a0:21:51:92:a7:68:70:58:80:
                    e4:92:aa:34:6b:f8:e8:6c:51:ff:4a:e2:6b:8b:63:
                    16:ce:06:03:c5:1c:6e:aa:27:dc:8e:89:83:46:95:
                    bb:7c:d9:30:47:77:49:fd:d2:e2:70:53:14:09:db:
                    0a:08:69:46:59:96:3d:eb:19:af:56:38:e3:d0:7d:
                    a8:56:56:40:38:3e:6c:ef:29:62:09:70:91:22:2a:
                    17:c5:1f:d7:ae:c9:4e:ed:e3:a5:5b:47:cf:49:96:
                    d7:17:cb:dc:d5:a7:a3:1a:88:ad:18:f5:d8:7a:c7:
                    45:55:08:9e:84:21:be:31:8c:91:1e:ad:da:92:57:
                    80:51
                Exponent: 65537 (0x10001)
        X509v3 extensions:
            Authority Information Access: 
                CA Issuers - URI:http://cis_ca.edgewood.edu/cis_ca.crt
                OCSP - URI:http://ocsp.cis_ca.edgewood.edu:9082

            X509v3 Authority Key Identifier: 
                keyid:A6:C5:37:F6:27:8C:BA:1E:77:62:20:44:70:FB:9C:4E:5C:00:ED:A4

            X509v3 Basic Constraints: critical
                CA:FALSE
            X509v3 CRL Distribution Points: 

                Full Name:
                  URI:http://cis_ca.edgewood.edu/cis_ca.crl

            X509v3 Extended Key Usage: 
                TLS Web Client Authentication
            X509v3 Key Usage: critical
                Digital Signature
            X509v3 Subject Key Identifier: 
                0A:51:13:45:33:80:9C:93:9C:C6:F6:02:75:82:8C:81:4A:C9:4A:7C
    Signature Algorithm: sha256WithRSAEncryption
         19:01:29:d0:81:57:2e:fb:4f:d4:e8:7b:aa:b7:83:92:91:e4:
         fe:cd:45:22:6f:36:a7:c8:1b:4c:f9:c7:f6:93:41:bc:95:f7:
         01:b4:fa:35:3d:0a:f6:df:38:db:98:c1:fd:74:1a:2b:55:c6:
         9b:46:73:7b:0f:5f:8e:08:bf:89:13:42:75:c7:8b:d1:37:88:
         1a:93:aa:e5:60:fd:d7:bb:95:d8:54:25:e7:17:e0:37:1a:c4:
         43:9d:5d:72:1d:f7:e0:20:47:23:24:57:de:45:20:f8:a7:e3:
         3c:2d:e3:8c:88:71:60:4a:c3:cf:f2:3e:06:e0:96:b1:37:9b:
         45:14:7d:6e:27:48:1b:bc:41:d4:93:47:29:60:13:35:f2:04:
         8f:a4:b3:cd:1a:46:14:c6:b1:8d:b8:db:cf:ba:c5:1c:ed:21:
         82:ce:cb:77:c4:ee:08:10:da:5e:34:df:38:09:09:95:45:0e:
         6b:d4:0a:89:16:45:54:40:18:63:fe:12:c2:16:50:e8:d4:f3:
         6b:ec:1f:ee:d6:31:b2:e3:42:7d:c5:6b:31:b2:6a:0e:82:63:
         5a:e2:41:fe:dc:72:b6:01:6b:0e:85:bd:33:e0:34:ed:85:89:
         31:6f:6d:da:d1:3e:7d:ff:f6:cc:c7:2f:a4:82:f7:55:8a:03:
         bd:80:f4:53:0b:19:eb:ef:33:3b:08:f4:36:97:5d:9b:13:2e:
         57:8e:a8:fc:e5:47:69:da:48:a6:a2:4b:3d:11:d3:fa:f2:f8:
         af:2c:a2:99:42:1c:fb:c9:f8:56:08:6a:a1:c7:3f:92:29:82:
         68:7b:29:fa:ce:5b:03:f8:21:01:12:44:0b:ad:3c:d6:bc:e8:
         f8:69:5b:ad:49:5a:57:0e:19:39:e9:1e:49:4a:85:dc:f8:67:
         24:19:51:82:4c:e8:d0:96:6f:f9:9b:e1:00:17:c1:df:5f:2d:
         8d:f0:58:0e:8c:80:ea:89:57:32:23:19:c3:dc:aa:79:40:44:
         db:3c:d2:53:92:2d:93:59:b2:65:41:b4:d0:ef:49:7d:1b:ca:
         32:56:9e:93:35:65:ec:4e:98:df:45:71:21:9d:85:2a:2c:41:
         df:4e:f7:bb:92:e9:87:f2:b3:9c:ba:71:ce:21:da:6d:bd:b4:
         f7:43:1e:0b:81:b0:22:ac:5c:88:ca:a6:58:54:17:0f:38:18:
         c2:c4:dc:e2:7a:13:b0:c5:46:a7:7f:7d:7d:f5:76:ca:81:15:
         b9:f2:e5:d6:cb:f5:c9:f2:e2:58:52:89:61:27:a5:38:04:a0:
         a9:dd:55:24:28:ec:aa:d0:7d:cb:3b:09:19:bb:b8:52:4e:24:
         25:a7:12:6e:de:39:bd:4d
-----BEGIN CERTIFICATE-----
MIIFYDCCA0igAwIBAgIQHdAHHICPTnU6PCu2G7lQcTANBgkqhkiG9w0BAQsFADA5
MQswCQYDVQQGEwJVUzEZMBcGA1UECgwQRWRnZXdvb2QgQ29sbGVnZTEPMA0GA1UE
AwwGQ0lTIENBMB4XDTE2MTEwOTIxNDExOVoXDTI2MTEwNzIxNDExOVowdzELMAkG
A1UEBhMCVVMxCzAJBgNVBAgMAldJMRkwFwYDVQQKDBBFZGdld29vZCBDb2xsZWdl
MQwwCgYDVQQLDANDSVMxDTALBgNVBAMMBFN1aGExIzAhBgkqhkiG9w0BCQEWFFNh
bGFxaWxAZWRnZXdvb2QuZWR1MIIBIjANBgkqhkiG9w0BAQEFAAOCAQ8AMIIBCgKC
AQEAskGuzu561KchOt+EVgXTizfZsT8oKWkMgDZkJJb7/Py7rqgjg8pBrT6JT9ap
RnIphxz8LvDB0a9zW020rWCOOius36yGuT9yjhd5lwVpOlX7GAmWxNTpXn4OA6cS
fkAwQdbf8Dx7sOzT51bXZFLR6H/wdvGStRttVfCy1KegIVGSp2hwWIDkkqo0a/jo
bFH/SuJri2MWzgYDxRxuqifcjomDRpW7fNkwR3dJ/dLicFMUCdsKCGlGWZY96xmv
Vjjj0H2oVlZAOD5s7yliCXCRIioXxR/XrslO7eOlW0fPSZbXF8vc1aejGoitGPXY
esdFVQiehCG+MYyRHq3akleAUQIDAQABo4IBJDCCASAwcwYIKwYBBQUHAQEEZzBl
MDEGCCsGAQUFBzAChiVodHRwOi8vY2lzX2NhLmVkZ2V3b29kLmVkdS9jaXNfY2Eu
Y3J0MDAGCCsGAQUFBzABhiRodHRwOi8vb2NzcC5jaXNfY2EuZWRnZXdvb2QuZWR1
OjkwODIwHwYDVR0jBBgwFoAUpsU39ieMuh53YiBEcPucTlwA7aQwDAYDVR0TAQH/
BAIwADA2BgNVHR8ELzAtMCugKaAnhiVodHRwOi8vY2lzX2NhLmVkZ2V3b29kLmVk
dS9jaXNfY2EuY3JsMBMGA1UdJQQMMAoGCCsGAQUFBwMCMA4GA1UdDwEB/wQEAwIH
gDAdBgNVHQ4EFgQUClETRTOAnJOcxvYCdYKMgUrJSnwwDQYJKoZIhvcNAQELBQAD
ggIBABkBKdCBVy77T9Toe6q3g5KR5P7NRSJvNqfIG0z5x/aTQbyV9wG0+jU9Cvbf
ONuYwf10GitVxptGc3sPX44Iv4kTQnXHi9E3iBqTquVg/de7ldhUJecX4DcaxEOd
XXId9+AgRyMkV95FIPin4zwt44yIcWBKw8/yPgbglrE3m0UUfW4nSBu8QdSTRylg
EzXyBI+ks80aRhTGsY2428+6xRztIYLOy3fE7ggQ2l403zgJCZVFDmvUCokWRVRA
GGP+EsIWUOjU82vsH+7WMbLjQn3FazGyag6CY1riQf7ccrYBaw6FvTPgNO2FiTFv
bdrRPn3/9szHL6SC91WKA72A9FMLGevvMzsI9DaXXZsTLleOqPzlR2naSKaiSz0R
0/ry+K8soplCHPvJ+FYIaqHHP5Ipgmh7KfrOWwP4IQESRAutPNa86PhpW61JWlcO
GTnpHklKhdz4ZyQZUYJM6NCWb/mb4QAXwd9fLY3wWA6MgOqJVzIjGcPcqnlARNs8
0lOSLZNZsmVBtNDvSX0byjJWnpM1ZexOmN9FcSGdhSosQd9O97uS6Yfys5y6cc4h
2m29tPdDHguBsCKsXIjKplhUFw84GMLE3OJ6E7DFRqd/fX31dsqBFbny5dbL9cny
4lhSiWEnpTgEoKndVSQo7KrQfcs7CRm7uFJOJCWnEm7eOb1N
-----END CERTIFICATE-----
