Certificate:
    Data:
        Version: 3 (0x2)
        Serial Number:
            1d:d0:07:1c:80:8f:4e:75:3a:3c:2b:b6:1b:b9:50:77
    Signature Algorithm: sha256WithRSAEncryption
        Issuer: C=US, O=Edgewood College, CN=CIS CA
        Validity
            Not Before: Nov 14 21:04:08 2016 GMT
            Not After : Nov 12 21:04:08 2026 GMT
        Subject: C=US, ST=WI, O=Edgewood College, OU=CIS, CN=Brandon Grosz/emailAddress=bgrosz@edgewood.edu
        Subject Public Key Info:
            Public Key Algorithm: rsaEncryption
                Public-Key: (2048 bit)
                Modulus:
                    00:b5:18:1c:06:78:e1:45:c2:33:33:06:96:9f:09:
                    7f:49:97:09:68:7a:2c:8c:cb:41:76:da:f4:c8:0d:
                    d9:e3:e1:d4:20:1a:fd:86:77:d0:41:76:84:33:3f:
                    0d:fc:ee:7d:3d:6d:b1:db:87:07:73:ef:f1:7a:8b:
                    ec:40:20:3a:38:4d:c5:1c:c3:2f:02:7e:2c:fe:72:
                    73:b3:a2:d7:13:fb:b2:b4:57:84:44:93:eb:c1:9e:
                    c2:15:d1:12:c3:48:78:3d:d2:85:6a:98:9a:ce:cb:
                    00:2c:f3:b8:04:e4:95:26:7e:7e:8f:3a:5a:db:b6:
                    e3:d1:5d:b8:66:ac:99:fa:37:20:1e:9b:dc:87:89:
                    0a:ac:0c:f3:a5:a1:3a:44:cc:4e:f9:b6:66:95:ad:
                    a4:fd:80:01:d5:ac:a7:58:b8:c2:64:43:19:d8:2f:
                    c2:90:40:69:4f:bb:da:d3:20:2a:08:55:a6:11:ab:
                    5e:af:d4:49:2e:57:87:f2:c2:a5:ec:ca:21:55:0e:
                    02:2d:61:ee:e7:b0:77:5e:58:1e:79:35:34:9c:7e:
                    ac:d0:4b:3c:67:10:d2:70:c9:16:6e:cd:6b:aa:c7:
                    25:3c:f7:e9:4f:10:3f:f9:81:20:07:ae:9b:e7:e0:
                    6c:bd:5a:6a:af:15:6b:d4:ae:9a:9d:85:4c:4b:99:
                    c6:e7
                Exponent: 65537 (0x10001)
        X509v3 extensions:
            Authority Information Access: 
                CA Issuers - URI:http://cis_ca.edgewood.edu/cis_ca.crt
                OCSP - URI:http://ocsp.cis_ca.edgewood.edu:9082

            X509v3 Authority Key Identifier: 
                keyid:A6:C5:37:F6:27:8C:BA:1E:77:62:20:44:70:FB:9C:4E:5C:00:ED:A4

            X509v3 Basic Constraints: critical
                CA:FALSE
            X509v3 CRL Distribution Points: 

                Full Name:
                  URI:http://cis_ca.edgewood.edu/cis_ca.crl

            X509v3 Extended Key Usage: 
                TLS Web Client Authentication
            X509v3 Key Usage: critical
                Digital Signature
            X509v3 Subject Key Identifier: 
                92:E0:5F:23:18:86:CB:17:13:44:4A:32:DD:D9:22:E9:A2:21:5B:A4
    Signature Algorithm: sha256WithRSAEncryption
         98:99:28:a9:36:cc:0f:8d:91:59:3a:ef:db:b3:75:96:6c:a8:
         29:45:c4:91:e1:87:75:6b:2b:75:48:05:f4:ff:9c:9f:66:18:
         4d:71:6b:fe:d7:9e:a1:80:9b:81:e2:5c:5e:35:72:91:d7:8b:
         bd:7b:87:7c:7d:83:68:c9:57:44:55:07:74:fc:2d:e2:69:e0:
         f6:e5:48:c0:c6:d1:0c:a9:87:a1:62:71:46:0f:4a:c9:8d:02:
         8c:1a:88:f1:06:02:f9:6f:5b:9e:95:54:f0:d9:40:87:45:b1:
         6a:52:a4:41:d2:04:6b:23:c4:06:fd:5f:59:0c:54:b0:11:bd:
         0f:6a:18:68:46:92:4a:26:d4:0a:00:05:11:12:e4:21:1e:c0:
         af:df:1a:05:7d:d6:32:79:4d:1f:ac:9e:b5:f6:5a:97:ee:c6:
         8b:43:4b:16:86:7c:0e:17:f3:ca:a6:4c:7e:2f:41:55:4c:eb:
         18:c2:74:75:d5:7f:18:cb:7c:7d:e3:e8:fe:88:19:3c:eb:12:
         17:61:8a:f1:9a:b5:93:df:90:75:c4:71:52:9c:76:7b:21:a5:
         fb:06:9f:3c:5e:45:a9:9b:5b:87:dd:54:2d:1e:80:d4:df:b8:
         3d:78:d8:4b:92:7b:25:61:2d:5c:ef:fa:41:d0:b3:63:bc:0a:
         6f:0b:fe:78:ab:0a:a6:71:8c:e3:d0:3e:4f:37:3a:e6:4a:f8:
         a4:18:8b:30:ef:cc:c4:18:f0:07:28:0b:3a:4a:17:df:76:53:
         9a:cf:5e:65:86:60:85:b1:8b:ce:31:d5:b3:b3:9d:d5:b0:ec:
         3b:f9:29:a3:a3:1f:82:49:4d:aa:5e:69:8c:98:b0:27:ef:9f:
         ba:fa:7c:0d:4d:5d:55:61:c5:75:8f:00:98:a3:ab:d7:84:ff:
         d8:55:fa:ec:2f:f1:12:89:84:84:33:32:a0:55:7d:ca:ad:58:
         d5:9e:a0:bb:c4:be:18:6c:23:a2:4c:59:4c:04:5c:64:fa:34:
         16:7f:a6:98:af:e1:55:b7:ea:72:62:30:78:5a:fd:35:27:de:
         50:36:0d:ad:42:fe:af:9e:bb:ec:a9:34:18:57:66:db:57:bc:
         da:8b:19:8a:66:da:0a:c8:ef:e3:f6:a9:f7:db:e5:3d:cb:c0:
         3b:58:c2:07:17:66:53:e0:1c:e6:00:9f:d4:26:cf:1c:30:35:
         cb:49:fa:4b:1f:e3:7e:aa:19:0e:4e:67:dd:bc:78:5b:d4:9a:
         86:cf:30:ab:79:56:22:c4:ef:9c:0d:1e:5c:ef:0f:30:80:b1:
         8f:8e:7f:9c:01:c6:6a:5a:a2:f2:b5:45:1b:32:b5:24:7c:96:
         8e:75:c0:5d:4c:34:09:ca
-----BEGIN CERTIFICATE-----
MIIFaDCCA1CgAwIBAgIQHdAHHICPTnU6PCu2G7lQdzANBgkqhkiG9w0BAQsFADA5
MQswCQYDVQQGEwJVUzEZMBcGA1UECgwQRWRnZXdvb2QgQ29sbGVnZTEPMA0GA1UE
AwwGQ0lTIENBMB4XDTE2MTExNDIxMDQwOFoXDTI2MTExMjIxMDQwOFowfzELMAkG
A1UEBhMCVVMxCzAJBgNVBAgMAldJMRkwFwYDVQQKDBBFZGdld29vZCBDb2xsZWdl
MQwwCgYDVQQLDANDSVMxFjAUBgNVBAMMDUJyYW5kb24gR3Jvc3oxIjAgBgkqhkiG
9w0BCQEWE2Jncm9zekBlZGdld29vZC5lZHUwggEiMA0GCSqGSIb3DQEBAQUAA4IB
DwAwggEKAoIBAQC1GBwGeOFFwjMzBpafCX9JlwloeiyMy0F22vTIDdnj4dQgGv2G
d9BBdoQzPw387n09bbHbhwdz7/F6i+xAIDo4TcUcwy8Cfiz+cnOzotcT+7K0V4RE
k+vBnsIV0RLDSHg90oVqmJrOywAs87gE5JUmfn6POlrbtuPRXbhmrJn6NyAem9yH
iQqsDPOloTpEzE75tmaVraT9gAHVrKdYuMJkQxnYL8KQQGlPu9rTICoIVaYRq16v
1EkuV4fywqXsyiFVDgItYe7nsHdeWB55NTScfqzQSzxnENJwyRZuzWuqxyU89+lP
ED/5gSAHrpvn4Gy9WmqvFWvUrpqdhUxLmcbnAgMBAAGjggEkMIIBIDBzBggrBgEF
BQcBAQRnMGUwMQYIKwYBBQUHMAKGJWh0dHA6Ly9jaXNfY2EuZWRnZXdvb2QuZWR1
L2Npc19jYS5jcnQwMAYIKwYBBQUHMAGGJGh0dHA6Ly9vY3NwLmNpc19jYS5lZGdl
d29vZC5lZHU6OTA4MjAfBgNVHSMEGDAWgBSmxTf2J4y6HndiIERw+5xOXADtpDAM
BgNVHRMBAf8EAjAAMDYGA1UdHwQvMC0wK6ApoCeGJWh0dHA6Ly9jaXNfY2EuZWRn
ZXdvb2QuZWR1L2Npc19jYS5jcmwwEwYDVR0lBAwwCgYIKwYBBQUHAwIwDgYDVR0P
AQH/BAQDAgeAMB0GA1UdDgQWBBSS4F8jGIbLFxNESjLd2SLpoiFbpDANBgkqhkiG
9w0BAQsFAAOCAgEAmJkoqTbMD42RWTrv27N1lmyoKUXEkeGHdWsrdUgF9P+cn2YY
TXFr/teeoYCbgeJcXjVykdeLvXuHfH2DaMlXRFUHdPwt4mng9uVIwMbRDKmHoWJx
Rg9KyY0CjBqI8QYC+W9bnpVU8NlAh0WxalKkQdIEayPEBv1fWQxUsBG9D2oYaEaS
SibUCgAFERLkIR7Ar98aBX3WMnlNH6yetfZal+7Gi0NLFoZ8DhfzyqZMfi9BVUzr
GMJ0ddV/GMt8fePo/ogZPOsSF2GK8Zq1k9+QdcRxUpx2eyGl+wafPF5FqZtbh91U
LR6A1N+4PXjYS5J7JWEtXO/6QdCzY7wKbwv+eKsKpnGM49A+Tzc65kr4pBiLMO/M
xBjwBygLOkoX33ZTms9eZYZghbGLzjHVs7Od1bDsO/kpo6MfgklNql5pjJiwJ++f
uvp8DU1dVWHFdY8AmKOr14T/2FX67C/xEomEhDMyoFV9yq1Y1Z6gu8S+GGwjokxZ
TARcZPo0Fn+mmK/hVbfqcmIweFr9NSfeUDYNrUL+r5677Kk0GFdm21e82osZimba
Csjv4/ap99vlPcvAO1jCBxdmU+Ac5gCf1CbPHDA1y0n6Sx/jfqoZDk5n3bx4W9Sa
hs8wq3lWIsTvnA0eXO8PMICxj45/nAHGalqi8rVFGzK1JHyWjnXAXUw0Cco=
-----END CERTIFICATE-----
