Certificate:
    Data:
        Version: 3 (0x2)
        Serial Number:
            1d:d0:07:1c:80:8f:4e:75:3a:3c:2b:b6:1b:b9:50:7a
    Signature Algorithm: sha256WithRSAEncryption
        Issuer: C=US, O=Edgewood College, CN=CIS CA
        Validity
            Not Before: Nov 14 21:21:54 2016 GMT
            Not After : Nov 12 21:21:54 2026 GMT
        Subject: C=US, ST=WI, O=Edgewood College, OU=CIS, CN=Shahbaz Durrani/emailAddress=sdurrani1337@edgewood.edu
        Subject Public Key Info:
            Public Key Algorithm: rsaEncryption
                Public-Key: (2048 bit)
                Modulus:
                    00:be:19:9b:3e:ac:57:44:f5:24:11:a1:2d:9d:7c:
                    ae:64:f9:c2:c4:f5:b2:fb:5f:a9:84:6f:b2:8a:2d:
                    07:af:fc:28:91:f2:db:c7:a9:08:17:bb:a4:63:73:
                    f8:78:4b:96:5a:16:5c:cc:02:10:fa:0c:17:80:b9:
                    6d:64:32:07:45:91:d0:f4:11:e9:6d:00:d2:59:71:
                    0b:a0:2c:1a:e9:fd:2c:1a:a4:2d:5d:ff:ab:ad:fa:
                    9e:ed:2f:ee:08:cb:33:d4:a8:b8:e7:85:c9:ea:c4:
                    3d:56:63:50:b1:a6:e5:49:e6:5e:c9:4a:2b:d2:1c:
                    ee:ac:6c:77:b9:f5:ed:63:09:fa:2f:1e:45:d2:99:
                    5d:69:ac:b7:31:65:44:5a:28:bf:36:fe:20:9b:55:
                    06:e2:a6:70:f9:cd:6b:c5:04:b0:88:69:30:e1:f9:
                    cd:14:12:ad:6d:e8:29:66:4e:20:c6:d6:9a:8a:c6:
                    f1:97:73:3c:16:4b:14:9c:5e:38:86:e0:4a:ab:e0:
                    cb:2b:60:0b:b1:63:8f:bb:97:5d:57:ea:57:16:16:
                    a2:58:00:35:68:3a:77:e3:23:f8:c8:5e:09:4c:71:
                    58:cf:c1:7f:e5:9a:49:16:29:5f:1c:15:c7:43:48:
                    a9:b5:ff:71:a4:dc:d1:1d:e2:47:33:b4:d7:bf:ef:
                    17:b7
                Exponent: 65537 (0x10001)
        X509v3 extensions:
            Authority Information Access: 
                CA Issuers - URI:http://cis_ca.edgewood.edu/cis_ca.crt
                OCSP - URI:http://ocsp.cis_ca.edgewood.edu:9082

            X509v3 Authority Key Identifier: 
                keyid:A6:C5:37:F6:27:8C:BA:1E:77:62:20:44:70:FB:9C:4E:5C:00:ED:A4

            X509v3 Basic Constraints: critical
                CA:FALSE
            X509v3 CRL Distribution Points: 

                Full Name:
                  URI:http://cis_ca.edgewood.edu/cis_ca.crl

            X509v3 Extended Key Usage: 
                TLS Web Client Authentication
            X509v3 Key Usage: critical
                Digital Signature
            X509v3 Subject Key Identifier: 
                A8:B5:48:50:8D:7F:96:D3:F3:D1:2B:6C:79:B9:C6:8F:93:5B:58:1F
    Signature Algorithm: sha256WithRSAEncryption
         1c:81:08:f0:b4:4d:d8:89:34:89:d9:d1:64:bc:a5:fb:72:a0:
         fe:1d:e1:eb:a4:74:9b:cd:99:0b:0b:7c:7c:77:c1:47:4b:8e:
         d6:d8:fc:31:62:a9:37:c0:f4:f8:73:04:a2:78:4b:48:8c:ff:
         3c:91:e4:6d:b8:a4:30:b2:68:8b:0f:87:bd:dc:28:55:01:cc:
         a4:a6:fe:74:3f:51:31:89:e4:25:b7:b8:77:af:ec:ca:4f:c5:
         15:c6:ee:6e:b6:46:f3:58:bc:c4:9f:e1:06:96:b3:59:72:31:
         15:47:fa:d7:d0:c6:8f:8d:b2:14:1c:0a:cf:9a:95:b0:bb:72:
         8d:36:26:6b:8f:69:dd:e6:01:cc:d9:25:2a:ae:4f:8c:fe:45:
         e3:0d:d9:27:1a:5a:a9:b6:34:f8:10:47:9e:4f:f7:bb:96:c6:
         3d:34:59:0d:16:ad:f0:15:10:81:1c:dc:c9:bc:05:07:5d:f3:
         61:95:68:a3:57:04:6b:34:df:12:bc:42:d7:1f:c5:ea:bb:4c:
         9c:1f:b9:72:5d:0e:83:ee:48:ea:64:0c:f8:18:e0:0b:4e:02:
         b6:2a:9b:e0:3c:ef:04:32:c3:3a:be:56:fd:cb:22:e3:df:07:
         ca:b1:b3:f0:a0:d4:77:91:17:e0:c4:ef:b9:e3:ca:64:f9:00:
         61:c6:f7:f7:70:c6:44:ad:5e:1e:2c:87:16:00:21:52:f8:29:
         b2:da:d4:ac:c9:e9:02:ce:ab:87:8e:dc:b9:2f:b9:72:77:85:
         33:84:31:a6:9e:26:32:17:95:0e:44:24:da:d3:fd:25:12:84:
         80:4c:af:cb:a1:70:20:d2:dc:5c:fe:06:dd:ef:eb:1f:1a:f0:
         b6:4f:17:c9:b2:2c:88:c8:98:15:b1:fa:5e:f1:46:17:40:f4:
         57:22:0e:a1:18:25:a4:fa:45:af:94:39:f1:14:58:20:35:38:
         bd:ea:8a:fa:cc:0f:e2:e6:4d:f1:7d:4c:42:a1:50:c1:44:43:
         30:45:92:ef:d7:76:aa:72:bd:cd:d0:f6:ef:63:50:2b:6f:97:
         7a:7b:8d:55:30:0e:11:26:e2:2b:a0:a8:2d:ed:92:86:64:5d:
         47:d9:26:ee:c8:41:0a:8a:5e:04:16:67:65:2b:35:32:b6:27:
         da:51:42:95:a4:56:7a:02:d2:e7:87:35:ef:17:b1:29:1a:d8:
         8c:75:45:87:8a:cb:49:22:a0:c1:d7:9d:22:94:6d:41:07:12:
         e6:a9:3b:7b:53:45:26:b6:30:18:6c:ce:65:18:cc:e2:ea:a3:
         90:da:ff:7d:b9:0e:15:24:58:9e:e1:45:7d:ed:73:dc:0e:45:
         69:d9:b0:79:6c:db:ea:40
-----BEGIN CERTIFICATE-----
MIIFcTCCA1mgAwIBAgIQHdAHHICPTnU6PCu2G7lQejANBgkqhkiG9w0BAQsFADA5
MQswCQYDVQQGEwJVUzEZMBcGA1UECgwQRWRnZXdvb2QgQ29sbGVnZTEPMA0GA1UE
AwwGQ0lTIENBMB4XDTE2MTExNDIxMjE1NFoXDTI2MTExMjIxMjE1NFowgYcxCzAJ
BgNVBAYTAlVTMQswCQYDVQQIDAJXSTEZMBcGA1UECgwQRWRnZXdvb2QgQ29sbGVn
ZTEMMAoGA1UECwwDQ0lTMRgwFgYDVQQDDA9TaGFoYmF6IER1cnJhbmkxKDAmBgkq
hkiG9w0BCQEWGXNkdXJyYW5pMTMzN0BlZGdld29vZC5lZHUwggEiMA0GCSqGSIb3
DQEBAQUAA4IBDwAwggEKAoIBAQC+GZs+rFdE9SQRoS2dfK5k+cLE9bL7X6mEb7KK
LQev/CiR8tvHqQgXu6Rjc/h4S5ZaFlzMAhD6DBeAuW1kMgdFkdD0EeltANJZcQug
LBrp/SwapC1d/6ut+p7tL+4IyzPUqLjnhcnqxD1WY1CxpuVJ5l7JSivSHO6sbHe5
9e1jCfovHkXSmV1prLcxZURaKL82/iCbVQbipnD5zWvFBLCIaTDh+c0UEq1t6Clm
TiDG1pqKxvGXczwWSxScXjiG4Eqr4MsrYAuxY4+7l11X6lcWFqJYADVoOnfjI/jI
XglMcVjPwX/lmkkWKV8cFcdDSKm1/3Gk3NEd4kcztNe/7xe3AgMBAAGjggEkMIIB
IDBzBggrBgEFBQcBAQRnMGUwMQYIKwYBBQUHMAKGJWh0dHA6Ly9jaXNfY2EuZWRn
ZXdvb2QuZWR1L2Npc19jYS5jcnQwMAYIKwYBBQUHMAGGJGh0dHA6Ly9vY3NwLmNp
c19jYS5lZGdld29vZC5lZHU6OTA4MjAfBgNVHSMEGDAWgBSmxTf2J4y6HndiIERw
+5xOXADtpDAMBgNVHRMBAf8EAjAAMDYGA1UdHwQvMC0wK6ApoCeGJWh0dHA6Ly9j
aXNfY2EuZWRnZXdvb2QuZWR1L2Npc19jYS5jcmwwEwYDVR0lBAwwCgYIKwYBBQUH
AwIwDgYDVR0PAQH/BAQDAgeAMB0GA1UdDgQWBBSotUhQjX+W0/PRK2x5ucaPk1tY
HzANBgkqhkiG9w0BAQsFAAOCAgEAHIEI8LRN2Ik0idnRZLyl+3Kg/h3h66R0m82Z
Cwt8fHfBR0uO1tj8MWKpN8D0+HMEonhLSIz/PJHkbbikMLJoiw+HvdwoVQHMpKb+
dD9RMYnkJbe4d6/syk/FFcbubrZG81i8xJ/hBpazWXIxFUf619DGj42yFBwKz5qV
sLtyjTYma49p3eYBzNklKq5PjP5F4w3ZJxpaqbY0+BBHnk/3u5bGPTRZDRat8BUQ
gRzcybwFB13zYZVoo1cEazTfErxC1x/F6rtMnB+5cl0Og+5I6mQM+BjgC04Ctiqb
4DzvBDLDOr5W/csi498HyrGz8KDUd5EX4MTvuePKZPkAYcb393DGRK1eHiyHFgAh
UvgpstrUrMnpAs6rh47cuS+5cneFM4Qxpp4mMheVDkQk2tP9JRKEgEyvy6FwINLc
XP4G3e/rHxrwtk8XybIsiMiYFbH6XvFGF0D0VyIOoRglpPpFr5Q58RRYIDU4veqK
+swP4uZN8X1MQqFQwURDMEWS79d2qnK9zdD272NQK2+XenuNVTAOESbiK6CoLe2S
hmRdR9km7shBCopeBBZnZSs1MrYn2lFClaRWegLS54c17xexKRrYjHVFh4rLSSKg
wdedIpRtQQcS5qk7e1NFJrYwGGzOZRjM4uqjkNr/fbkOFSRYnuFFfe1z3A5Fadmw
eWzb6kA=
-----END CERTIFICATE-----
