Certificate:
    Data:
        Version: 3 (0x2)
        Serial Number:
            1d:d0:07:1c:80:8f:4e:75:3a:3c:2b:b6:1b:b9:50:6a
    Signature Algorithm: sha256WithRSAEncryption
        Issuer: C=US, O=Edgewood College, CN=CIS CA
        Validity
            Not Before: Nov  9 15:40:01 2016 GMT
            Not After : Nov  7 15:40:01 2026 GMT
        Subject: C=US, O=Edgewood College, CN=CIS CA
        Subject Public Key Info:
            Public Key Algorithm: rsaEncryption
                Public-Key: (4096 bit)
                Modulus:
                    00:e5:1a:3b:07:de:46:d4:15:6d:d7:58:e9:20:34:
                    88:3b:56:6d:be:bd:7c:43:b3:fb:76:a7:0f:bd:92:
                    26:dd:3c:59:80:d9:1e:80:65:c4:45:d0:ee:23:2f:
                    3d:15:d9:ed:fd:db:ec:c0:28:f5:af:c2:ec:3e:6b:
                    24:d8:f3:e1:f3:27:91:21:fb:bf:51:06:a1:92:e4:
                    ed:a5:ff:da:4d:03:b5:2d:ef:5d:20:fa:d5:b1:63:
                    07:4a:27:a5:b7:3f:58:a5:8a:89:65:9c:5b:9a:28:
                    6e:4a:e5:67:c3:87:24:ac:e9:bb:77:ca:e7:34:f7:
                    29:bf:d6:c5:12:22:0f:ba:91:ac:f0:d3:eb:9a:50:
                    e2:1a:03:d1:c4:e6:e6:64:53:9a:3d:27:32:8e:db:
                    95:91:84:a7:7d:77:02:20:15:3f:12:37:76:09:d6:
                    65:fd:97:e9:ae:00:a3:49:16:32:e0:87:3a:e7:72:
                    a5:8f:34:ba:6b:12:10:36:76:66:73:a4:f9:be:ab:
                    63:bc:0f:7c:20:df:9a:18:18:3f:5c:a9:9a:95:cc:
                    d5:48:d3:da:e3:76:5d:42:7c:63:54:e0:44:aa:eb:
                    6e:77:f4:f3:c5:57:54:7a:24:41:96:56:8a:cb:6b:
                    0a:43:62:ff:b3:9e:e3:9c:97:46:4f:50:b7:81:8b:
                    4b:02:cc:a4:69:20:c6:53:9e:bd:3a:a0:38:de:49:
                    ce:60:3f:5b:59:cb:cf:1c:60:bb:1e:c5:7a:35:c3:
                    1d:71:91:90:e6:a6:e1:78:ee:6d:53:0c:c1:c0:94:
                    7b:b2:5a:c2:3a:c2:03:6b:86:09:aa:91:ee:37:1e:
                    a7:aa:f2:25:d3:73:93:d3:b0:f3:74:60:74:cd:4e:
                    71:fc:1a:75:5e:b4:b4:4d:3c:e4:1d:a6:1b:e7:46:
                    98:7b:02:f2:70:4e:3f:76:37:b6:a1:19:d4:dd:a2:
                    6b:96:51:d4:b8:bc:99:2c:4c:d7:ee:e5:11:30:23:
                    a8:9a:5a:fb:6e:dc:25:82:4e:a8:b8:bd:37:0f:96:
                    cb:37:43:57:70:26:bc:20:ea:12:ff:5a:f8:53:4b:
                    eb:ab:92:9e:a0:7f:47:a4:e3:06:9f:c5:9d:4e:ee:
                    c7:47:c8:31:fe:b5:d5:47:46:4a:79:22:f0:c0:f3:
                    09:05:76:65:a4:51:fd:8c:7f:46:19:78:ad:34:8d:
                    fd:96:0f:db:96:84:35:bb:e7:41:74:18:a9:2b:5e:
                    1d:cd:f1:ee:ba:2e:7b:7c:f3:65:72:cd:70:ff:1a:
                    20:43:06:e5:32:16:4f:29:aa:71:7f:e3:ab:6d:04:
                    1a:1c:70:60:97:8d:62:71:a7:0e:28:20:7c:30:10:
                    73:04:7d
                Exponent: 65537 (0x10001)
        X509v3 extensions:
            X509v3 Basic Constraints: critical
                CA:TRUE, pathlen:0
            X509v3 Key Usage: critical
                Certificate Sign, CRL Sign
            X509v3 Subject Key Identifier: 
                A6:C5:37:F6:27:8C:BA:1E:77:62:20:44:70:FB:9C:4E:5C:00:ED:A4
    Signature Algorithm: sha256WithRSAEncryption
         77:ce:9e:55:8b:65:b1:1f:04:87:cc:58:90:f2:da:05:e2:37:
         7d:07:3c:89:eb:05:58:c1:17:e6:e7:53:c6:8d:d4:c5:32:fc:
         6e:33:fb:d0:bd:8c:bf:48:5e:9c:13:76:6d:c8:69:7b:ff:b7:
         a7:8d:e7:b2:ad:28:17:c4:f0:5e:c8:c0:86:5c:5f:17:02:5c:
         7a:fc:14:d8:07:f9:b3:c2:1a:87:ef:9c:91:f0:6b:1e:be:c6:
         c9:52:51:2f:ca:19:9e:72:8a:8a:7a:71:72:d9:3c:08:04:7a:
         b4:08:42:fa:f0:30:60:70:b8:7d:82:7b:47:76:a3:1c:a0:7a:
         91:99:5f:8f:92:55:f7:18:2d:2d:a9:ed:da:f8:b6:e7:7c:50:
         1d:90:2d:ec:db:98:54:21:25:57:3b:25:16:c5:06:46:51:9c:
         93:27:ef:3f:c1:9e:93:38:ab:f3:1d:8c:68:1c:11:90:97:6f:
         7a:45:67:1f:e6:89:90:09:24:c5:96:94:f0:30:98:22:f6:0a:
         b0:9c:d9:07:b4:9c:96:ef:24:8a:e8:a5:0b:a5:09:63:94:73:
         db:98:90:3b:c8:08:56:8b:f7:21:b6:04:46:9c:aa:22:bd:08:
         ce:84:88:b1:53:c0:18:57:10:33:01:56:53:70:b3:43:2c:37:
         b0:87:0c:6e:0a:01:83:ec:32:73:f4:55:c8:5b:87:46:9c:6f:
         a7:35:d1:c3:ef:1f:5a:e7:4b:00:33:c5:ac:9c:09:b5:be:18:
         cd:8f:d9:76:33:22:cf:0a:21:3c:47:13:92:58:83:06:4e:2c:
         27:fe:2a:bd:ec:7e:08:32:5b:7c:87:6f:a0:5e:45:09:42:21:
         ab:3c:ce:21:75:d7:d7:89:60:74:84:c8:f3:57:90:08:54:4e:
         94:a0:34:c6:55:24:28:df:d5:0a:27:c4:7e:0e:72:6f:77:68:
         70:ce:30:63:36:73:c9:d7:5e:b2:eb:f8:60:d1:23:84:36:5f:
         f9:9e:8c:fb:d7:d7:ec:4c:65:17:d9:ec:32:7b:5a:88:f3:a5:
         7c:b4:1f:13:2f:b4:1a:87:aa:ae:e5:9c:58:49:cf:67:ab:60:
         ee:62:27:d2:b5:f9:fc:7d:95:d3:18:e1:2c:cc:15:ce:10:32:
         bb:fc:2b:f9:64:1a:ec:e4:82:1d:db:a5:9b:9b:1c:d0:4f:d1:
         88:8f:4b:90:0e:85:e1:20:b0:46:52:b8:cd:b7:73:dd:34:d3:
         9c:d2:7a:a8:66:c7:17:57:38:f8:1d:dd:9b:6a:df:18:32:30:
         ce:5f:e3:aa:f0:bf:71:6e:08:8e:a9:0d:64:4c:0b:ac:8b:3e:
         23:3b:43:6b:30:44:3a:28
-----BEGIN CERTIFICATE-----
MIIFQTCCAymgAwIBAgIQHdAHHICPTnU6PCu2G7lQajANBgkqhkiG9w0BAQsFADA5
MQswCQYDVQQGEwJVUzEZMBcGA1UECgwQRWRnZXdvb2QgQ29sbGVnZTEPMA0GA1UE
AwwGQ0lTIENBMB4XDTE2MTEwOTE1NDAwMVoXDTI2MTEwNzE1NDAwMVowOTELMAkG
A1UEBhMCVVMxGTAXBgNVBAoMEEVkZ2V3b29kIENvbGxlZ2UxDzANBgNVBAMMBkNJ
UyBDQTCCAiIwDQYJKoZIhvcNAQEBBQADggIPADCCAgoCggIBAOUaOwfeRtQVbddY
6SA0iDtWbb69fEOz+3anD72SJt08WYDZHoBlxEXQ7iMvPRXZ7f3b7MAo9a/C7D5r
JNjz4fMnkSH7v1EGoZLk7aX/2k0DtS3vXSD61bFjB0onpbc/WKWKiWWcW5oobkrl
Z8OHJKzpu3fK5zT3Kb/WxRIiD7qRrPDT65pQ4hoD0cTm5mRTmj0nMo7blZGEp313
AiAVPxI3dgnWZf2X6a4Ao0kWMuCHOudypY80umsSEDZ2ZnOk+b6rY7wPfCDfmhgY
P1ypmpXM1UjT2uN2XUJ8Y1TgRKrrbnf088VXVHokQZZWistrCkNi/7Oe45yXRk9Q
t4GLSwLMpGkgxlOevTqgON5JzmA/W1nLzxxgux7FejXDHXGRkOam4XjubVMMwcCU
e7JawjrCA2uGCaqR7jcep6ryJdNzk9Ow83RgdM1OcfwadV60tE085B2mG+dGmHsC
8nBOP3Y3tqEZ1N2ia5ZR1Li8mSxM1+7lETAjqJpa+27cJYJOqLi9Nw+WyzdDV3Am
vCDqEv9a+FNL66uSnqB/R6TjBp/FnU7ux0fIMf611UdGSnki8MDzCQV2ZaRR/Yx/
Rhl4rTSN/ZYP25aENbvnQXQYqSteHc3x7roue3zzZXLNcP8aIEMG5TIWTymqcX/j
q20EGhxwYJeNYnGnDiggfDAQcwR9AgMBAAGjRTBDMBIGA1UdEwEB/wQIMAYBAf8C
AQAwDgYDVR0PAQH/BAQDAgEGMB0GA1UdDgQWBBSmxTf2J4y6HndiIERw+5xOXADt
pDANBgkqhkiG9w0BAQsFAAOCAgEAd86eVYtlsR8Eh8xYkPLaBeI3fQc8iesFWMEX
5udTxo3UxTL8bjP70L2Mv0henBN2bchpe/+3p43nsq0oF8TwXsjAhlxfFwJcevwU
2Af5s8Iah++ckfBrHr7GyVJRL8oZnnKKinpxctk8CAR6tAhC+vAwYHC4fYJ7R3aj
HKB6kZlfj5JV9xgtLant2vi253xQHZAt7NuYVCElVzslFsUGRlGckyfvP8Gekzir
8x2MaBwRkJdvekVnH+aJkAkkxZaU8DCYIvYKsJzZB7Sclu8kiuilC6UJY5Rz25iQ
O8gIVov3IbYERpyqIr0IzoSIsVPAGFcQMwFWU3CzQyw3sIcMbgoBg+wyc/RVyFuH
RpxvpzXRw+8fWudLADPFrJwJtb4YzY/ZdjMizwohPEcTkliDBk4sJ/4qvex+CDJb
fIdvoF5FCUIhqzzOIXXX14lgdITI81eQCFROlKA0xlUkKN/VCifEfg5yb3docM4w
YzZzyddesuv4YNEjhDZf+Z6M+9fX7ExlF9nsMntaiPOlfLQfEy+0GoeqruWcWEnP
Z6tg7mIn0rX5/H2V0xjhLMwVzhAyu/wr+WQa7OSCHdulm5sc0E/RiI9LkA6F4SCw
RlK4zbdz3TTTnNJ6qGbHF1c4+B3dm2rfGDIwzl/jqvC/cW4IjqkNZEwLrIs+IztD
azBEOig=
-----END CERTIFICATE-----
