Certificate:
    Data:
        Version: 3 (0x2)
        Serial Number:
            1d:d0:07:1c:80:8f:4e:75:3a:3c:2b:b6:1b:b9:50:76
    Signature Algorithm: sha256WithRSAEncryption
        Issuer: C=US, O=Edgewood College, CN=CIS CA
        Validity
            Not Before: Nov 14 20:45:46 2016 GMT
            Not After : Nov 12 20:45:46 2026 GMT
        Subject: C=US, ST=WI, O=Edgewood College, OU=CIS, CN=Lowell Cohen/emailAddress=ldcohen@edgewood.edu
        Subject Public Key Info:
            Public Key Algorithm: rsaEncryption
                Public-Key: (2048 bit)
                Modulus:
                    00:d8:05:c2:23:d8:9e:7c:91:bd:4e:f5:13:c3:71:
                    3c:83:40:b5:9b:9a:f0:3b:8e:4e:4f:41:8d:4c:ae:
                    80:46:69:16:e3:d9:d3:59:10:5a:84:f6:e6:c6:d9:
                    56:2a:50:2b:77:e4:2f:56:c2:83:c2:26:3b:d4:b1:
                    ae:3f:fd:11:99:87:8a:e2:6e:b1:0f:67:56:33:5e:
                    26:2f:70:f6:60:4e:b9:ce:51:4e:8f:47:c1:a9:26:
                    fc:5e:46:fb:49:d3:6c:10:52:39:7d:d0:3d:02:03:
                    81:e2:dd:b2:49:a2:3c:5c:eb:30:de:77:39:f4:ac:
                    99:13:d5:95:f4:c3:53:86:79:a2:dc:7e:b6:2c:f7:
                    ce:5d:0f:fd:96:cd:aa:52:b6:10:77:40:60:52:63:
                    e4:a7:e1:92:c5:ee:b4:6b:9a:eb:27:36:82:b0:45:
                    29:17:d2:ed:c2:db:de:85:74:6b:4c:c3:1c:c0:87:
                    f8:0d:2a:5a:48:d2:1c:aa:96:da:fd:8b:9c:e1:a6:
                    5c:10:3e:55:22:fa:f0:fc:f6:84:87:7a:a6:5d:77:
                    3b:2b:89:a8:5b:2a:c7:f5:c3:ee:ae:df:e2:43:4c:
                    c3:16:5d:c2:60:b0:d8:02:52:0a:e5:90:e4:74:ab:
                    e5:6d:3c:6a:19:ca:76:5b:96:1b:71:1d:c0:fc:3c:
                    43:2b
                Exponent: 65537 (0x10001)
        X509v3 extensions:
            Authority Information Access: 
                CA Issuers - URI:http://cis_ca.edgewood.edu/cis_ca.crt
                OCSP - URI:http://ocsp.cis_ca.edgewood.edu:9082

            X509v3 Authority Key Identifier: 
                keyid:A6:C5:37:F6:27:8C:BA:1E:77:62:20:44:70:FB:9C:4E:5C:00:ED:A4

            X509v3 Basic Constraints: critical
                CA:FALSE
            X509v3 CRL Distribution Points: 

                Full Name:
                  URI:http://cis_ca.edgewood.edu/cis_ca.crl

            X509v3 Extended Key Usage: 
                TLS Web Client Authentication
            X509v3 Key Usage: critical
                Digital Signature
            X509v3 Subject Key Identifier: 
                58:5C:B0:F4:80:2B:23:82:3B:6D:D6:5D:DA:9E:89:49:79:64:14:DA
    Signature Algorithm: sha256WithRSAEncryption
         96:65:41:85:42:b4:2c:3b:c6:5a:89:82:d0:70:74:4f:87:46:
         79:fe:88:13:25:0a:19:a1:6d:a4:9d:a0:93:6a:11:bd:a9:e4:
         95:d2:04:d1:97:0e:85:9c:de:12:12:16:f2:73:eb:1f:cb:b0:
         fc:91:68:fc:e3:b6:8e:80:47:f8:0e:fc:63:a8:b8:11:74:e3:
         d0:cb:b8:a0:47:f9:83:38:50:ad:af:97:e3:1f:a4:b1:94:8a:
         04:68:2c:61:26:89:30:81:71:8c:45:e6:c7:d6:63:f6:b1:e0:
         fb:da:9b:07:cb:ac:d4:a7:98:12:3e:c7:61:78:98:ea:78:c6:
         1f:5c:3a:c8:c3:60:da:be:73:0f:b9:d8:fa:34:ef:52:e3:28:
         65:f6:96:1d:11:9d:62:67:12:1d:e9:62:50:d4:6f:94:8c:c9:
         03:e0:0d:18:6d:a6:ad:a9:33:44:0e:5e:c6:26:fc:80:d5:fa:
         a2:36:74:fe:2b:54:07:44:ef:1a:08:b1:3a:18:77:15:c4:e1:
         82:e0:db:2d:bc:e7:5f:91:97:bd:27:ff:e4:9e:3c:f7:03:66:
         43:c6:a0:36:b8:a6:1b:f7:cc:7a:fc:97:01:a7:c3:73:f5:67:
         d5:6b:74:a9:05:07:b9:d8:98:27:6d:30:03:9a:d6:a0:07:dd:
         ea:15:e8:07:e2:01:e5:a9:12:f8:e8:d8:f7:7b:0b:2a:94:35:
         be:31:23:b2:8f:c1:88:f7:cc:4b:a4:50:32:70:f8:58:17:4e:
         00:cd:8b:55:47:32:d8:b0:ef:6d:7f:c3:1b:89:b1:a2:a5:57:
         ce:98:c7:ad:03:d6:f0:1e:2a:00:5a:cd:8a:ed:55:7c:b4:c8:
         d7:d6:5b:82:00:bc:76:4f:79:0e:d2:6b:4c:68:e4:80:ad:c1:
         47:9b:c8:f8:d0:27:f0:1a:09:77:4e:6d:a9:81:74:1f:f0:d3:
         50:44:f4:6f:0e:39:df:8e:9c:cd:cb:5a:17:23:af:fd:ee:21:
         a1:9f:82:1d:2f:79:82:39:25:f6:d1:d2:70:53:61:8e:eb:47:
         80:36:48:cd:9b:90:e8:7e:db:51:de:0a:50:2c:ba:cb:b2:8a:
         70:49:f5:b1:29:a9:eb:b8:a2:e4:92:23:98:01:26:09:fe:4a:
         ca:34:42:9e:bb:aa:56:86:59:b2:b0:44:e4:cd:d9:d5:e1:a3:
         b5:e8:77:52:59:73:0a:11:4b:65:d6:f9:18:6e:32:b2:c9:55:
         4d:99:df:ca:41:f6:22:b3:0d:9d:45:d7:84:b7:dd:ce:05:5b:
         6d:6c:64:a1:a4:12:b4:67:fb:39:0a:dc:63:49:b3:f1:56:fb:
         a5:43:6b:89:ea:fe:2b:f6
-----BEGIN CERTIFICATE-----
MIIFaDCCA1CgAwIBAgIQHdAHHICPTnU6PCu2G7lQdjANBgkqhkiG9w0BAQsFADA5
MQswCQYDVQQGEwJVUzEZMBcGA1UECgwQRWRnZXdvb2QgQ29sbGVnZTEPMA0GA1UE
AwwGQ0lTIENBMB4XDTE2MTExNDIwNDU0NloXDTI2MTExMjIwNDU0NlowfzELMAkG
A1UEBhMCVVMxCzAJBgNVBAgMAldJMRkwFwYDVQQKDBBFZGdld29vZCBDb2xsZWdl
MQwwCgYDVQQLDANDSVMxFTATBgNVBAMMDExvd2VsbCBDb2hlbjEjMCEGCSqGSIb3
DQEJARYUbGRjb2hlbkBlZGdld29vZC5lZHUwggEiMA0GCSqGSIb3DQEBAQUAA4IB
DwAwggEKAoIBAQDYBcIj2J58kb1O9RPDcTyDQLWbmvA7jk5PQY1MroBGaRbj2dNZ
EFqE9ubG2VYqUCt35C9WwoPCJjvUsa4//RGZh4ribrEPZ1YzXiYvcPZgTrnOUU6P
R8GpJvxeRvtJ02wQUjl90D0CA4Hi3bJJojxc6zDedzn0rJkT1ZX0w1OGeaLcfrYs
985dD/2WzapSthB3QGBSY+Sn4ZLF7rRrmusnNoKwRSkX0u3C296FdGtMwxzAh/gN
KlpI0hyqltr9i5zhplwQPlUi+vD89oSHeqZddzsriahbKsf1w+6u3+JDTMMWXcJg
sNgCUgrlkOR0q+VtPGoZynZblhtxHcD8PEMrAgMBAAGjggEkMIIBIDBzBggrBgEF
BQcBAQRnMGUwMQYIKwYBBQUHMAKGJWh0dHA6Ly9jaXNfY2EuZWRnZXdvb2QuZWR1
L2Npc19jYS5jcnQwMAYIKwYBBQUHMAGGJGh0dHA6Ly9vY3NwLmNpc19jYS5lZGdl
d29vZC5lZHU6OTA4MjAfBgNVHSMEGDAWgBSmxTf2J4y6HndiIERw+5xOXADtpDAM
BgNVHRMBAf8EAjAAMDYGA1UdHwQvMC0wK6ApoCeGJWh0dHA6Ly9jaXNfY2EuZWRn
ZXdvb2QuZWR1L2Npc19jYS5jcmwwEwYDVR0lBAwwCgYIKwYBBQUHAwIwDgYDVR0P
AQH/BAQDAgeAMB0GA1UdDgQWBBRYXLD0gCsjgjtt1l3anolJeWQU2jANBgkqhkiG
9w0BAQsFAAOCAgEAlmVBhUK0LDvGWomC0HB0T4dGef6IEyUKGaFtpJ2gk2oRvank
ldIE0ZcOhZzeEhIW8nPrH8uw/JFo/OO2joBH+A78Y6i4EXTj0Mu4oEf5gzhQra+X
4x+ksZSKBGgsYSaJMIFxjEXmx9Zj9rHg+9qbB8us1KeYEj7HYXiY6njGH1w6yMNg
2r5zD7nY+jTvUuMoZfaWHRGdYmcSHeliUNRvlIzJA+ANGG2mrakzRA5exib8gNX6
ojZ0/itUB0TvGgixOhh3FcThguDbLbznX5GXvSf/5J489wNmQ8agNrimG/fMevyX
AafDc/Vn1Wt0qQUHudiYJ20wA5rWoAfd6hXoB+IB5akS+OjY93sLKpQ1vjEjso/B
iPfMS6RQMnD4WBdOAM2LVUcy2LDvbX/DG4mxoqVXzpjHrQPW8B4qAFrNiu1VfLTI
19ZbggC8dk95DtJrTGjkgK3BR5vI+NAn8BoJd05tqYF0H/DTUET0bw45346czcta
FyOv/e4hoZ+CHS95gjkl9tHScFNhjutHgDZIzZuQ6H7bUd4KUCy6y7KKcEn1sSmp
67ii5JIjmAEmCf5KyjRCnruqVoZZsrBE5M3Z1eGjteh3UllzChFLZdb5GG4ysslV
TZnfykH2IrMNnUXXhLfdzgVbbWxkoaQStGf7OQrcY0mz8Vb7pUNrier+K/Y=
-----END CERTIFICATE-----
