Certificate:
    Data:
        Version: 3 (0x2)
        Serial Number:
            1d:d0:07:1c:80:8f:4e:75:3a:3c:2b:b6:1b:b9:50:72
    Signature Algorithm: sha256WithRSAEncryption
        Issuer: C=US, O=Edgewood College, CN=CIS CA
        Validity
            Not Before: Nov  9 21:44:23 2016 GMT
            Not After : Nov  7 21:44:23 2026 GMT
        Subject: C=US, ST=WI, O=Edgewood College, OU=CIS, CN=Mallory Kling/emailAddress=mkling@edgewood.edu
        Subject Public Key Info:
            Public Key Algorithm: rsaEncryption
                Public-Key: (2048 bit)
                Modulus:
                    00:b2:15:d9:5f:5b:e4:35:00:9a:ad:2f:fb:34:70:
                    5c:fa:c8:84:23:50:92:76:bf:40:92:df:75:15:7e:
                    10:ce:b9:49:96:32:e3:1c:74:54:36:65:3d:c2:98:
                    9a:70:96:63:95:15:f7:d8:a4:2e:01:38:bf:f5:1f:
                    8a:c3:6d:e3:29:2f:7f:9f:6b:e1:ef:43:37:39:85:
                    8d:24:a5:a0:89:99:e9:3d:53:78:31:0f:72:7e:81:
                    3a:0d:a0:1e:56:76:e8:88:d2:7f:07:b4:9a:6e:b1:
                    9b:0d:46:0a:90:0b:52:09:06:e0:62:82:ba:c8:68:
                    25:f6:11:24:75:c5:71:55:4b:04:2a:77:ff:86:59:
                    0a:9e:a5:09:ca:d5:fa:2f:71:b7:15:f9:ff:75:d3:
                    ba:b8:d2:4c:38:6a:68:a0:28:3a:31:64:e6:b2:5b:
                    ac:38:67:e0:7e:bf:29:da:c5:fb:5b:8e:cf:0b:13:
                    80:be:7d:3c:1f:a9:5e:74:a8:07:cf:db:e6:17:c6:
                    27:44:27:82:96:44:a0:bc:07:cf:d6:f7:17:2c:b3:
                    ef:9f:93:bd:f4:72:28:b1:3a:d1:b3:4f:47:5b:1a:
                    87:31:48:7a:5e:ad:79:e8:3c:a6:b5:09:e4:99:db:
                    e4:f3:d1:3e:ea:8b:25:66:cf:1b:09:5f:1a:53:05:
                    54:a1
                Exponent: 65537 (0x10001)
        X509v3 extensions:
            Authority Information Access: 
                CA Issuers - URI:http://cis_ca.edgewood.edu/cis_ca.crt
                OCSP - URI:http://ocsp.cis_ca.edgewood.edu:9082

            X509v3 Authority Key Identifier: 
                keyid:A6:C5:37:F6:27:8C:BA:1E:77:62:20:44:70:FB:9C:4E:5C:00:ED:A4

            X509v3 Basic Constraints: critical
                CA:FALSE
            X509v3 CRL Distribution Points: 

                Full Name:
                  URI:http://cis_ca.edgewood.edu/cis_ca.crl

            X509v3 Extended Key Usage: 
                TLS Web Client Authentication
            X509v3 Key Usage: critical
                Digital Signature
            X509v3 Subject Key Identifier: 
                8E:F6:DB:F6:A4:3F:18:D0:A1:E1:95:83:B7:19:4F:FC:E3:80:DD:B8
    Signature Algorithm: sha256WithRSAEncryption
         87:50:55:1e:ff:90:a5:8b:e3:91:80:e1:d4:51:90:ad:6b:da:
         a3:5a:a8:de:30:84:06:3c:73:d5:b8:f6:43:5b:26:da:25:7c:
         d4:1b:7f:70:96:19:87:27:73:76:5f:6a:90:14:3a:0e:d9:96:
         3c:53:03:83:0d:1f:1c:65:c7:a0:dc:16:c1:93:bd:18:c2:5c:
         f5:6c:75:f9:a3:f7:b4:d4:77:5b:42:9d:a7:40:a9:e0:95:47:
         15:ec:f2:0f:49:d8:6a:bd:a9:28:88:37:5f:63:9d:79:e6:6f:
         1d:c1:2d:ae:9b:1a:01:b8:8c:d3:15:4a:ff:03:ba:30:fe:65:
         55:4b:f1:32:59:2d:b6:ec:2d:cb:7f:02:71:11:14:cd:33:46:
         25:a3:04:c1:53:21:84:c6:96:ae:66:aa:49:29:4e:f3:33:43:
         07:b6:c7:bc:e9:ee:dc:50:3a:90:28:a4:17:a3:fa:8f:af:b0:
         e8:d6:3c:2e:9f:36:74:5c:dc:cf:28:40:67:66:b9:fc:44:61:
         2e:a0:46:12:46:64:c0:9b:8a:fc:87:69:cb:7c:03:c5:b9:32:
         1b:dc:dd:fd:b9:55:ea:c4:e6:86:96:3f:3f:67:22:68:d8:66:
         ac:d1:c3:d6:e7:6c:da:0c:08:32:0f:f3:d0:e9:b0:64:4f:51:
         83:f5:22:f0:cb:53:59:50:6c:4b:0d:61:4f:80:48:76:87:0b:
         4a:72:9c:19:d1:cc:ab:d4:5a:58:4d:8c:19:70:83:39:8f:f5:
         67:95:79:48:5e:25:2f:fe:5e:28:13:0a:24:d3:fa:63:b0:cf:
         7d:49:31:4b:b6:74:c6:3f:ff:6a:a5:1a:87:e6:41:66:0d:97:
         9c:b3:88:03:38:6d:48:97:ac:7e:29:dc:ae:90:5b:6c:c2:25:
         36:eb:e9:ec:7a:b5:df:0d:fc:2c:8b:f4:b6:5b:22:1a:6a:de:
         2a:0f:68:2f:a0:e7:28:8d:c9:8c:41:7a:ae:0f:27:ee:a3:43:
         32:b3:0e:93:00:62:5f:15:ab:ed:22:59:dd:13:de:97:df:ab:
         59:cd:0e:95:86:27:38:a2:70:a9:ac:08:91:c1:a3:75:08:68:
         20:30:ec:70:a7:23:d2:d3:6c:a8:a1:6a:f7:20:cc:d5:80:24:
         f8:1b:f4:37:15:93:06:e1:fb:bb:23:a1:b9:86:d5:42:8a:05:
         e5:51:6e:88:25:3d:cb:0a:f9:c1:9c:20:3d:6d:9b:57:bf:b7:
         35:ba:78:e5:14:74:94:9e:51:d3:92:ff:e0:74:0b:cb:36:47:
         2c:e0:63:2c:dd:63:37:65:b0:e9:c1:3a:c1:df:c2:fa:70:49:
         64:6e:c1:96:61:4a:a2:0b
-----BEGIN CERTIFICATE-----
MIIFaDCCA1CgAwIBAgIQHdAHHICPTnU6PCu2G7lQcjANBgkqhkiG9w0BAQsFADA5
MQswCQYDVQQGEwJVUzEZMBcGA1UECgwQRWRnZXdvb2QgQ29sbGVnZTEPMA0GA1UE
AwwGQ0lTIENBMB4XDTE2MTEwOTIxNDQyM1oXDTI2MTEwNzIxNDQyM1owfzELMAkG
A1UEBhMCVVMxCzAJBgNVBAgMAldJMRkwFwYDVQQKDBBFZGdld29vZCBDb2xsZWdl
MQwwCgYDVQQLDANDSVMxFjAUBgNVBAMMDU1hbGxvcnkgS2xpbmcxIjAgBgkqhkiG
9w0BCQEWE21rbGluZ0BlZGdld29vZC5lZHUwggEiMA0GCSqGSIb3DQEBAQUAA4IB
DwAwggEKAoIBAQCyFdlfW+Q1AJqtL/s0cFz6yIQjUJJ2v0CS33UVfhDOuUmWMuMc
dFQ2ZT3CmJpwlmOVFffYpC4BOL/1H4rDbeMpL3+fa+HvQzc5hY0kpaCJmek9U3gx
D3J+gToNoB5WduiI0n8HtJpusZsNRgqQC1IJBuBigrrIaCX2ESR1xXFVSwQqd/+G
WQqepQnK1fovcbcV+f9107q40kw4amigKDoxZOayW6w4Z+B+vynaxftbjs8LE4C+
fTwfqV50qAfP2+YXxidEJ4KWRKC8B8/W9xcss++fk730ciixOtGzT0dbGocxSHpe
rXnoPKa1CeSZ2+Tz0T7qiyVmzxsJXxpTBVShAgMBAAGjggEkMIIBIDBzBggrBgEF
BQcBAQRnMGUwMQYIKwYBBQUHMAKGJWh0dHA6Ly9jaXNfY2EuZWRnZXdvb2QuZWR1
L2Npc19jYS5jcnQwMAYIKwYBBQUHMAGGJGh0dHA6Ly9vY3NwLmNpc19jYS5lZGdl
d29vZC5lZHU6OTA4MjAfBgNVHSMEGDAWgBSmxTf2J4y6HndiIERw+5xOXADtpDAM
BgNVHRMBAf8EAjAAMDYGA1UdHwQvMC0wK6ApoCeGJWh0dHA6Ly9jaXNfY2EuZWRn
ZXdvb2QuZWR1L2Npc19jYS5jcmwwEwYDVR0lBAwwCgYIKwYBBQUHAwIwDgYDVR0P
AQH/BAQDAgeAMB0GA1UdDgQWBBSO9tv2pD8Y0KHhlYO3GU/844DduDANBgkqhkiG
9w0BAQsFAAOCAgEAh1BVHv+QpYvjkYDh1FGQrWvao1qo3jCEBjxz1bj2Q1sm2iV8
1Bt/cJYZhydzdl9qkBQ6DtmWPFMDgw0fHGXHoNwWwZO9GMJc9Wx1+aP3tNR3W0Kd
p0Cp4JVHFezyD0nYar2pKIg3X2OdeeZvHcEtrpsaAbiM0xVK/wO6MP5lVUvxMlkt
tuwty38CcREUzTNGJaMEwVMhhMaWrmaqSSlO8zNDB7bHvOnu3FA6kCikF6P6j6+w
6NY8Lp82dFzczyhAZ2a5/ERhLqBGEkZkwJuK/Idpy3wDxbkyG9zd/blV6sTmhpY/
P2ciaNhmrNHD1uds2gwIMg/z0OmwZE9Rg/Ui8MtTWVBsSw1hT4BIdocLSnKcGdHM
q9RaWE2MGXCDOY/1Z5V5SF4lL/5eKBMKJNP6Y7DPfUkxS7Z0xj//aqUah+ZBZg2X
nLOIAzhtSJesfincrpBbbMIlNuvp7Hq13w38LIv0tlsiGmreKg9oL6DnKI3JjEF6
rg8n7qNDMrMOkwBiXxWr7SJZ3RPel9+rWc0OlYYnOKJwqawIkcGjdQhoIDDscKcj
0tNsqKFq9yDM1YAk+Bv0NxWTBuH7uyOhuYbVQooF5VFuiCU9ywr5wZwgPW2bV7+3
Nbp45RR0lJ5R05L/4HQLyzZHLOBjLN1jN2Ww6cE6wd/C+nBJZG7BlmFKogs=
-----END CERTIFICATE-----
