Certificate:
    Data:
        Version: 3 (0x2)
        Serial Number:
            1d:d0:07:1c:80:8f:4e:75:3a:3c:2b:b6:1b:b9:50:73
    Signature Algorithm: sha256WithRSAEncryption
        Issuer: C=US, O=Edgewood College, CN=CIS CA
        Validity
            Not Before: Nov 10 01:57:02 2016 GMT
            Not After : Nov  8 01:57:02 2026 GMT
        Subject: C=US, ST=WI, O=Edgewood College, OU=CIS, CN=Mallory Kling/emailAddress=mkling@edgewood.edu
        Subject Public Key Info:
            Public Key Algorithm: rsaEncryption
                Public-Key: (2048 bit)
                Modulus:
                    00:b2:15:d9:5f:5b:e4:35:00:9a:ad:2f:fb:34:70:
                    5c:fa:c8:84:23:50:92:76:bf:40:92:df:75:15:7e:
                    10:ce:b9:49:96:32:e3:1c:74:54:36:65:3d:c2:98:
                    9a:70:96:63:95:15:f7:d8:a4:2e:01:38:bf:f5:1f:
                    8a:c3:6d:e3:29:2f:7f:9f:6b:e1:ef:43:37:39:85:
                    8d:24:a5:a0:89:99:e9:3d:53:78:31:0f:72:7e:81:
                    3a:0d:a0:1e:56:76:e8:88:d2:7f:07:b4:9a:6e:b1:
                    9b:0d:46:0a:90:0b:52:09:06:e0:62:82:ba:c8:68:
                    25:f6:11:24:75:c5:71:55:4b:04:2a:77:ff:86:59:
                    0a:9e:a5:09:ca:d5:fa:2f:71:b7:15:f9:ff:75:d3:
                    ba:b8:d2:4c:38:6a:68:a0:28:3a:31:64:e6:b2:5b:
                    ac:38:67:e0:7e:bf:29:da:c5:fb:5b:8e:cf:0b:13:
                    80:be:7d:3c:1f:a9:5e:74:a8:07:cf:db:e6:17:c6:
                    27:44:27:82:96:44:a0:bc:07:cf:d6:f7:17:2c:b3:
                    ef:9f:93:bd:f4:72:28:b1:3a:d1:b3:4f:47:5b:1a:
                    87:31:48:7a:5e:ad:79:e8:3c:a6:b5:09:e4:99:db:
                    e4:f3:d1:3e:ea:8b:25:66:cf:1b:09:5f:1a:53:05:
                    54:a1
                Exponent: 65537 (0x10001)
        X509v3 extensions:
            Authority Information Access: 
                CA Issuers - URI:http://cis_ca.edgewood.edu/cis_ca.crt
                OCSP - URI:http://ocsp.cis_ca.edgewood.edu:9082

            X509v3 Authority Key Identifier: 
                keyid:A6:C5:37:F6:27:8C:BA:1E:77:62:20:44:70:FB:9C:4E:5C:00:ED:A4

            X509v3 Basic Constraints: critical
                CA:FALSE
            X509v3 CRL Distribution Points: 

                Full Name:
                  URI:http://cis_ca.edgewood.edu/cis_ca.crl

            X509v3 Extended Key Usage: 
                TLS Web Client Authentication
            X509v3 Key Usage: critical
                Digital Signature
            X509v3 Subject Key Identifier: 
                8E:F6:DB:F6:A4:3F:18:D0:A1:E1:95:83:B7:19:4F:FC:E3:80:DD:B8
    Signature Algorithm: sha256WithRSAEncryption
         5a:9b:ce:0d:86:7b:4c:ff:c1:64:50:28:50:07:f6:03:f1:53:
         8f:fe:a7:ce:36:10:4d:41:02:ed:97:70:4a:25:63:e5:35:ab:
         fb:51:16:86:dc:4a:f1:b7:72:9f:76:68:c8:52:af:d6:ba:51:
         1d:27:d0:cf:3e:77:c0:75:d9:88:f1:15:cd:97:4f:cc:9a:83:
         0a:4a:af:3a:72:ae:27:33:63:6e:41:f2:6d:c0:c4:9f:b9:d0:
         d9:2e:08:6b:82:9d:f5:e4:77:e3:d7:f7:0c:7c:6d:a5:ef:54:
         d8:15:0e:dd:5a:b8:60:2d:c8:85:f7:af:50:2a:af:56:42:e2:
         8d:1b:55:6f:ef:ec:3c:90:bc:33:5b:0e:18:d9:1a:94:6f:d3:
         f2:46:d6:10:cd:e1:1f:fc:a7:52:f8:28:f9:ae:c3:50:4c:80:
         4c:59:f5:00:36:f3:3a:81:9f:43:86:83:61:d0:d8:c5:d9:d9:
         fb:d2:42:da:8e:57:fe:73:d3:e0:17:d9:21:29:00:3b:fc:d7:
         25:f5:24:ff:ca:76:53:a6:75:a4:b6:3b:b0:0d:fa:50:66:5e:
         43:63:15:c1:90:f4:80:31:a2:03:ae:b1:20:44:a5:57:af:f1:
         99:08:23:3b:7d:8d:8c:80:3c:d5:bd:93:00:02:b3:74:b9:4c:
         5b:6a:16:42:f2:ff:41:7d:b6:5d:80:c0:a1:9f:a1:2b:51:35:
         21:f6:e6:64:86:10:f5:51:bd:ec:c7:87:95:ba:7d:e4:80:76:
         48:85:2b:73:54:82:e5:50:69:99:e7:d3:33:85:d8:ed:d0:38:
         e9:08:72:57:07:ff:a6:fd:db:8f:53:82:e7:dc:b4:6a:d6:12:
         dd:19:62:49:6b:07:98:12:a1:43:02:61:a3:d7:c6:3a:20:55:
         94:f8:6a:e9:a5:1b:86:02:af:de:ef:de:8b:82:45:32:d2:86:
         27:37:0e:61:10:24:f1:e3:7e:4e:01:f9:a1:30:64:ce:27:38:
         ef:73:06:f8:05:66:ad:0f:1e:bc:c4:e8:5f:73:5d:88:10:9a:
         72:1c:d1:34:61:d6:58:fb:ad:85:51:6d:ca:61:fa:43:72:a4:
         77:27:e2:b7:1d:85:cd:66:5a:54:8e:cd:88:ca:ea:0d:47:d0:
         93:dd:a7:f1:af:6f:64:e9:64:2f:4b:67:ac:1f:97:b6:ee:2a:
         ec:6c:32:23:54:05:97:b5:c5:26:3c:34:62:ef:56:98:ed:37:
         64:0f:f7:1f:62:36:85:78:80:1e:9e:ff:cd:6c:1d:1a:cc:d8:
         13:d8:69:f0:44:0f:7e:0a:9d:1c:89:bc:aa:70:32:15:37:a4:
         c8:45:3f:90:34:59:e5:5a
-----BEGIN CERTIFICATE-----
MIIFaDCCA1CgAwIBAgIQHdAHHICPTnU6PCu2G7lQczANBgkqhkiG9w0BAQsFADA5
MQswCQYDVQQGEwJVUzEZMBcGA1UECgwQRWRnZXdvb2QgQ29sbGVnZTEPMA0GA1UE
AwwGQ0lTIENBMB4XDTE2MTExMDAxNTcwMloXDTI2MTEwODAxNTcwMlowfzELMAkG
A1UEBhMCVVMxCzAJBgNVBAgMAldJMRkwFwYDVQQKDBBFZGdld29vZCBDb2xsZWdl
MQwwCgYDVQQLDANDSVMxFjAUBgNVBAMMDU1hbGxvcnkgS2xpbmcxIjAgBgkqhkiG
9w0BCQEWE21rbGluZ0BlZGdld29vZC5lZHUwggEiMA0GCSqGSIb3DQEBAQUAA4IB
DwAwggEKAoIBAQCyFdlfW+Q1AJqtL/s0cFz6yIQjUJJ2v0CS33UVfhDOuUmWMuMc
dFQ2ZT3CmJpwlmOVFffYpC4BOL/1H4rDbeMpL3+fa+HvQzc5hY0kpaCJmek9U3gx
D3J+gToNoB5WduiI0n8HtJpusZsNRgqQC1IJBuBigrrIaCX2ESR1xXFVSwQqd/+G
WQqepQnK1fovcbcV+f9107q40kw4amigKDoxZOayW6w4Z+B+vynaxftbjs8LE4C+
fTwfqV50qAfP2+YXxidEJ4KWRKC8B8/W9xcss++fk730ciixOtGzT0dbGocxSHpe
rXnoPKa1CeSZ2+Tz0T7qiyVmzxsJXxpTBVShAgMBAAGjggEkMIIBIDBzBggrBgEF
BQcBAQRnMGUwMQYIKwYBBQUHMAKGJWh0dHA6Ly9jaXNfY2EuZWRnZXdvb2QuZWR1
L2Npc19jYS5jcnQwMAYIKwYBBQUHMAGGJGh0dHA6Ly9vY3NwLmNpc19jYS5lZGdl
d29vZC5lZHU6OTA4MjAfBgNVHSMEGDAWgBSmxTf2J4y6HndiIERw+5xOXADtpDAM
BgNVHRMBAf8EAjAAMDYGA1UdHwQvMC0wK6ApoCeGJWh0dHA6Ly9jaXNfY2EuZWRn
ZXdvb2QuZWR1L2Npc19jYS5jcmwwEwYDVR0lBAwwCgYIKwYBBQUHAwIwDgYDVR0P
AQH/BAQDAgeAMB0GA1UdDgQWBBSO9tv2pD8Y0KHhlYO3GU/844DduDANBgkqhkiG
9w0BAQsFAAOCAgEAWpvODYZ7TP/BZFAoUAf2A/FTj/6nzjYQTUEC7ZdwSiVj5TWr
+1EWhtxK8bdyn3ZoyFKv1rpRHSfQzz53wHXZiPEVzZdPzJqDCkqvOnKuJzNjbkHy
bcDEn7nQ2S4Ia4Kd9eR349f3DHxtpe9U2BUO3Vq4YC3IhfevUCqvVkLijRtVb+/s
PJC8M1sOGNkalG/T8kbWEM3hH/ynUvgo+a7DUEyATFn1ADbzOoGfQ4aDYdDYxdnZ
+9JC2o5X/nPT4BfZISkAO/zXJfUk/8p2U6Z1pLY7sA36UGZeQ2MVwZD0gDGiA66x
IESlV6/xmQgjO32NjIA81b2TAAKzdLlMW2oWQvL/QX22XYDAoZ+hK1E1IfbmZIYQ
9VG97MeHlbp95IB2SIUrc1SC5VBpmefTM4XY7dA46QhyVwf/pv3bj1OC59y0atYS
3RliSWsHmBKhQwJho9fGOiBVlPhq6aUbhgKv3u/ei4JFMtKGJzcOYRAk8eN+TgH5
oTBkzic473MG+AVmrQ8evMToX3NdiBCachzRNGHWWPuthVFtymH6Q3Kkdyfitx2F
zWZaVI7NiMrqDUfQk92n8a9vZOlkL0tnrB+Xtu4q7GwyI1QFl7XFJjw0Yu9WmO03
ZA/3H2I2hXiAHp7/zWwdGszYE9hp8EQPfgqdHIm8qnAyFTekyEU/kDRZ5Vo=
-----END CERTIFICATE-----
