Certificate:
    Data:
        Version: 3 (0x2)
        Serial Number:
            1d:d0:07:1c:80:8f:4e:75:3a:3c:2b:b6:1b:b9:50:6b
    Signature Algorithm: sha256WithRSAEncryption
        Issuer: C=US, O=Edgewood College, CN=CIS CA
        Validity
            Not Before: Nov  9 15:44:54 2016 GMT
            Not After : Nov  7 15:44:54 2026 GMT
        Subject: C=US, ST=WI, O=Edgewood College, OU=CIS, CN=Xianping Wang/emailAddress=xiawang@edgewood.edu
        Subject Public Key Info:
            Public Key Algorithm: rsaEncryption
                Public-Key: (2048 bit)
                Modulus:
                    00:9f:bf:30:5e:52:4f:ba:4a:be:a1:f4:0b:54:a9:
                    b9:cc:fa:3d:a5:24:2d:7e:8c:d4:41:04:61:d9:1a:
                    1b:91:00:42:00:9a:d9:d9:72:db:6f:a9:dc:cd:a2:
                    d9:66:3e:06:3b:f5:bc:89:d8:af:4e:88:db:a9:0b:
                    55:58:d8:00:bf:fb:c0:7c:a4:c9:54:8c:a2:01:0d:
                    c6:f1:a3:f8:ac:e5:33:a2:c6:78:5f:bd:24:66:e8:
                    1f:08:d8:06:23:e5:7d:3a:8f:2a:11:3d:9c:b4:9f:
                    ae:fc:79:c7:78:cf:95:73:de:5a:45:e8:0f:7a:29:
                    00:f8:c5:5f:5f:35:6c:ce:1a:63:41:ac:88:43:d6:
                    17:26:6d:fc:8a:03:a9:94:3e:7d:cc:14:40:29:39:
                    fd:d9:9b:c4:f2:c2:3a:79:74:b6:b3:fd:02:8d:f0:
                    84:c1:82:8e:c1:7d:5e:54:53:68:fa:be:39:66:b0:
                    da:8b:bb:73:2a:ee:70:2c:84:44:c1:8a:f7:65:9b:
                    30:c8:b6:a2:3f:03:76:d2:15:7c:bc:9a:ba:4c:93:
                    79:1c:4a:1f:7f:1e:ec:76:03:e0:19:2e:5e:08:71:
                    7f:60:11:9d:90:c6:1d:fe:7c:92:ac:2e:e2:ea:fe:
                    de:3b:c7:ff:9b:4b:61:6a:39:e9:b1:63:d2:50:cb:
                    84:af
                Exponent: 65537 (0x10001)
        X509v3 extensions:
            Authority Information Access: 
                CA Issuers - URI:http://cis_ca.edgewood.edu/cis_ca.crt
                OCSP - URI:http://ocsp.cis_ca.edgewood.edu:9082

            X509v3 Authority Key Identifier: 
                keyid:A6:C5:37:F6:27:8C:BA:1E:77:62:20:44:70:FB:9C:4E:5C:00:ED:A4

            X509v3 Basic Constraints: critical
                CA:TRUE, pathlen:0
            X509v3 CRL Distribution Points: 

                Full Name:
                  URI:http://cis_ca.edgewood.edu/cis_ca.crl

            X509v3 Extended Key Usage: 
                TLS Web Client Authentication
            X509v3 Key Usage: critical
                Certificate Sign, CRL Sign
            X509v3 Name Constraints: 
                Permitted:
                  DNS:edgewood.edu
                Excluded:
                  IP:0.0.0.0/0.0.0.0
                  IP:0:0:0:0:0:0:0:0/0:0:0:0:0:0:0:0

            X509v3 Subject Key Identifier: 
                E2:26:69:AF:A8:A7:F9:10:C3:91:B6:65:79:C8:3F:2A:A1:3B:57:55
    Signature Algorithm: sha256WithRSAEncryption
         05:8d:0c:75:5b:ca:34:b5:75:05:13:ad:d7:5c:0c:4c:fe:49:
         a8:1f:4f:f8:87:63:70:94:d7:a8:90:06:0f:db:12:6f:36:b1:
         05:a5:3c:cf:6e:cd:a5:25:f3:6c:09:b6:55:39:38:e5:7f:4e:
         7c:7f:0d:5d:40:c4:a1:c3:fa:a5:51:85:c5:04:2a:d6:e0:62:
         b6:9a:38:2d:70:d0:b3:13:1b:ff:bb:f7:7c:f6:39:ba:77:7b:
         72:be:60:6a:6c:72:3c:cd:62:4e:50:ff:4c:87:31:b5:49:44:
         ec:58:5d:94:30:07:e0:ef:2c:58:7b:2f:9c:ca:30:f0:6e:92:
         4c:93:33:4b:98:46:60:e0:1c:c7:0c:c0:25:e2:ca:c8:cd:1c:
         5c:ab:b8:0f:67:f7:eb:d4:19:4f:fd:3e:0e:94:7e:27:0a:ac:
         40:28:86:a0:f1:98:c5:03:b2:a3:5e:b9:59:2c:44:b6:c7:aa:
         39:14:ce:9a:02:6b:97:05:21:e7:9f:5a:f5:f2:7a:43:f3:e6:
         1d:d4:f1:6b:d2:f3:3b:31:6c:a6:a2:52:14:c7:81:7f:d1:84:
         2f:35:31:ec:57:d1:39:d3:bc:d3:6d:9c:9c:ed:ac:d7:ca:f3:
         4c:25:5c:2e:9e:f1:6a:bc:51:8b:38:b2:d8:ae:12:8f:bd:9f:
         d1:50:67:52:4f:58:f7:2c:90:c7:5b:48:de:e9:15:19:ce:7d:
         b3:e8:00:31:25:ea:78:65:85:cc:b1:f4:95:47:2a:0a:31:c8:
         3a:ec:7f:6a:eb:29:b6:b4:6c:91:a9:cd:36:d0:f4:cd:b0:c0:
         af:9c:91:7e:04:aa:81:6f:bb:67:e8:7c:3e:08:6e:43:a7:b3:
         d0:e9:dc:5c:42:85:72:3f:72:e7:5e:48:94:4c:e5:d1:1a:cb:
         99:16:7a:7d:a5:97:51:a3:e1:39:ff:c1:7c:7c:d0:2a:f2:3f:
         86:bc:49:65:94:5c:74:e7:96:a6:f3:bd:ae:1b:43:d1:f5:c2:
         de:8d:d4:92:3a:02:f4:70:bf:99:a3:5a:68:1e:7c:61:87:e3:
         4c:35:ad:fd:18:3c:d4:6f:88:9d:6b:df:4d:b6:d2:0c:f3:d9:
         f8:77:81:ab:5e:f4:5c:fc:18:91:58:d8:c6:3f:be:7f:6a:af:
         e6:30:26:d3:a9:c5:cb:37:29:96:5c:4f:a5:d0:25:af:53:3d:
         0d:2c:ef:96:13:4e:f4:8b:ed:d9:83:6e:69:5b:7e:8e:ad:77:
         85:89:61:ac:44:e5:31:3f:b3:90:91:73:59:55:7b:ad:2f:95:
         ab:cb:69:22:90:16:51:16:57:3d:bb:b6:a7:a7:14:e7:6c:73:
         11:96:e7:42:7e:93:1c:cb
-----BEGIN CERTIFICATE-----
MIIFvzCCA6egAwIBAgIQHdAHHICPTnU6PCu2G7lQazANBgkqhkiG9w0BAQsFADA5
MQswCQYDVQQGEwJVUzEZMBcGA1UECgwQRWRnZXdvb2QgQ29sbGVnZTEPMA0GA1UE
AwwGQ0lTIENBMB4XDTE2MTEwOTE1NDQ1NFoXDTI2MTEwNzE1NDQ1NFowgYAxCzAJ
BgNVBAYTAlVTMQswCQYDVQQIDAJXSTEZMBcGA1UECgwQRWRnZXdvb2QgQ29sbGVn
ZTEMMAoGA1UECwwDQ0lTMRYwFAYDVQQDDA1YaWFucGluZyBXYW5nMSMwIQYJKoZI
hvcNAQkBFhR4aWF3YW5nQGVkZ2V3b29kLmVkdTCCASIwDQYJKoZIhvcNAQEBBQAD
ggEPADCCAQoCggEBAJ+/MF5ST7pKvqH0C1Spucz6PaUkLX6M1EEEYdkaG5EAQgCa
2dly22+p3M2i2WY+Bjv1vInYr06I26kLVVjYAL/7wHykyVSMogENxvGj+KzlM6LG
eF+9JGboHwjYBiPlfTqPKhE9nLSfrvx5x3jPlXPeWkXoD3opAPjFX181bM4aY0Gs
iEPWFyZt/IoDqZQ+fcwUQCk5/dmbxPLCOnl0trP9Ao3whMGCjsF9XlRTaPq+OWaw
2ou7cyrucCyERMGK92WbMMi2oj8DdtIVfLyaukyTeRxKH38e7HYD4BkuXghxf2AR
nZDGHf58kqwu4ur+3jvH/5tLYWo56bFj0lDLhK8CAwEAAaOCAXkwggF1MHMGCCsG
AQUFBwEBBGcwZTAxBggrBgEFBQcwAoYlaHR0cDovL2Npc19jYS5lZGdld29vZC5l
ZHUvY2lzX2NhLmNydDAwBggrBgEFBQcwAYYkaHR0cDovL29jc3AuY2lzX2NhLmVk
Z2V3b29kLmVkdTo5MDgyMB8GA1UdIwQYMBaAFKbFN/YnjLoed2IgRHD7nE5cAO2k
MBIGA1UdEwEB/wQIMAYBAf8CAQAwNgYDVR0fBC8wLTAroCmgJ4YlaHR0cDovL2Np
c19jYS5lZGdld29vZC5lZHUvY2lzX2NhLmNybDATBgNVHSUEDDAKBggrBgEFBQcD
AjAOBgNVHQ8BAf8EBAMCAQYwTQYDVR0eBEYwRKAQMA6CDGVkZ2V3b29kLmVkdaEw
MAqHCAAAAAAAAAAAMCKHIAAAAAAAAAAAAAAAAAAAAAAAAAAAAAAAAAAAAAAAAAAA
MB0GA1UdDgQWBBTiJmmvqKf5EMORtmV5yD8qoTtXVTANBgkqhkiG9w0BAQsFAAOC
AgEABY0MdVvKNLV1BROt11wMTP5JqB9P+IdjcJTXqJAGD9sSbzaxBaU8z27NpSXz
bAm2VTk45X9OfH8NXUDEocP6pVGFxQQq1uBitpo4LXDQsxMb/7v3fPY5und7cr5g
amxyPM1iTlD/TIcxtUlE7FhdlDAH4O8sWHsvnMow8G6STJMzS5hGYOAcxwzAJeLK
yM0cXKu4D2f369QZT/0+DpR+JwqsQCiGoPGYxQOyo165WSxEtseqORTOmgJrlwUh
559a9fJ6Q/PmHdTxa9LzOzFspqJSFMeBf9GELzUx7FfROdO8022cnO2s18rzTCVc
Lp7xarxRiziy2K4Sj72f0VBnUk9Y9yyQx1tI3ukVGc59s+gAMSXqeGWFzLH0lUcq
CjHIOux/ausptrRskanNNtD0zbDAr5yRfgSqgW+7Z+h8PghuQ6ez0OncXEKFcj9y
515IlEzl0RrLmRZ6faWXUaPhOf/BfHzQKvI/hrxJZZRcdOeWpvO9rhtD0fXC3o3U
kjoC9HC/maNaaB58YYfjTDWt/Rg81G+InWvfTbbSDPPZ+HeBq170XPwYkVjYxj++
f2qv5jAm06nFyzcpllxPpdAlr1M9DSzvlhNO9Ivt2YNuaVt+jq13hYlhrETlMT+z
kJFzWVV7rS+Vq8tpIpAWURZXPbu2p6cU52xzEZbnQn6THMs=
-----END CERTIFICATE-----
