Certificate:
    Data:
        Version: 3 (0x2)
        Serial Number:
            c2:e2:3e:5a:68:5f:2b:0f:5a:38:e5:97:a8:40:a7:13
    Signature Algorithm: sha256WithRSAEncryption
        Issuer: C=US, O=Edgewood College, CN=Sub CA
        Validity
            Not Before: Nov  8 22:02:38 2016 GMT
            Not After : Dec  8 22:02:38 2016 GMT
        Subject: C=US, O=Edgewood College, CN=OCSP Sub Responder
        Subject Public Key Info:
            Public Key Algorithm: rsaEncryption
                Public-Key: (2048 bit)
                Modulus:
                    00:c7:24:9b:0b:e8:cc:11:dc:cb:9b:37:93:1e:32:
                    35:cb:b3:a7:47:b0:73:33:b0:e2:d6:cc:0e:65:a0:
                    b1:7c:e7:a8:3d:0c:5b:eb:01:10:62:b7:8c:7f:a1:
                    13:b1:c0:1e:4b:45:3c:f9:20:e4:75:2c:e6:a6:a7:
                    69:d3:4c:e2:aa:de:65:24:8e:76:3e:f4:a9:df:68:
                    8e:81:ac:00:9b:1b:e1:e7:40:2d:1e:dc:4e:2a:d1:
                    3b:d2:45:40:03:a6:2e:e0:47:ce:33:43:cd:30:3d:
                    96:bb:f9:8c:31:37:f2:f3:a7:f5:35:30:ac:21:fa:
                    0c:e2:58:6f:14:e7:f0:32:bc:22:0f:7b:e8:d0:e5:
                    24:85:72:7e:78:e6:66:8e:7f:f0:a5:ae:7f:ab:05:
                    ea:41:d7:18:f6:a6:9b:09:88:00:5f:df:8f:7d:c6:
                    b9:0f:6a:31:78:ad:52:ef:24:72:b8:b9:87:32:5f:
                    9f:18:f5:1b:34:41:7b:97:07:7d:c7:f9:ff:62:34:
                    90:44:22:21:f6:b1:cb:8f:be:6d:60:70:42:5c:4b:
                    3c:d2:82:43:da:57:5d:a3:ad:f5:b2:3b:b1:51:ea:
                    bc:93:cc:3d:b3:38:a6:b6:6e:ef:05:6f:ce:80:1e:
                    c4:5e:c7:ac:84:e8:1d:f6:0f:ab:6d:29:75:c6:68:
                    69:8b
                Exponent: 65537 (0x10001)
        X509v3 extensions:
            X509v3 Authority Key Identifier: 
                keyid:5B:7D:9B:AF:28:4B:B2:09:DA:A4:EC:88:6C:78:74:83:5C:C0:E2:FA

            X509v3 Basic Constraints: critical
                CA:FALSE
            X509v3 Extended Key Usage: 
                OCSP Signing
            X509v3 Key Usage: critical
                Digital Signature
            X509v3 Subject Key Identifier: 
                57:CA:78:70:3D:F7:CB:58:D8:00:EC:24:7E:FB:A8:41:96:EF:DE:1F
    Signature Algorithm: sha256WithRSAEncryption
         8f:ff:c5:4a:49:8e:04:e8:1b:05:2b:eb:3e:20:9a:bd:f1:7e:
         bb:13:d7:3c:38:ce:b0:e4:ef:01:6f:80:54:41:15:62:21:c8:
         37:ad:b6:7b:67:1c:fe:ad:14:a4:10:5a:aa:cf:71:56:d7:da:
         e3:1b:fb:64:b1:ac:ed:0b:54:e9:35:a7:6b:8a:86:30:d8:01:
         a0:29:b5:3a:2c:f7:7a:d1:de:65:b7:dc:78:04:2c:28:11:ae:
         f8:de:57:16:e2:58:67:b0:5e:aa:66:72:64:85:ee:d3:27:6d:
         2b:ae:1c:26:96:50:2b:1c:8d:98:8b:0c:d3:a7:89:04:a3:fe:
         0c:8a:88:97:28:da:ac:ba:8d:0f:54:bd:f4:be:9f:cf:86:ed:
         1d:6a:be:b8:ad:9d:7b:06:59:7e:3f:85:ad:a2:94:4b:4a:b7:
         39:22:93:5f:d3:3e:f1:ab:83:61:75:36:32:53:fc:c0:e9:a4:
         26:4a:dc:13:76:26:a9:e1:3d:05:e5:4f:06:78:92:31:4e:fc:
         4d:f1:89:3f:91:ad:d4:87:ae:34:a6:a1:37:43:21:52:bf:53:
         3a:99:a5:8d:ac:8e:08:3d:c3:88:3c:36:38:2e:be:9a:fb:71:
         3a:66:32:d5:41:28:72:bc:41:31:33:8b:2f:35:39:b3:5c:d0:
         44:52:1d:75:3e:cb:bf:52:92:29:05:05:d4:54:c7:18:b8:8a:
         44:e2:e3:e6:c9:4c:9c:86:d9:c7:ea:40:7a:59:a7:ba:25:aa:
         f1:8e:cf:73:db:13:41:60:b2:ec:b7:7a:da:8a:83:cb:86:c8:
         ad:11:cf:6a:a5:06:4c:89:15:81:c7:e7:b3:a5:9c:db:65:60:
         61:ac:4d:88:e5:1d:d7:92:a9:22:91:92:ad:cd:48:05:19:53:
         ca:fe:a0:c6:e1:6f:82:14:d1:a3:d8:22:f6:f2:e2:a6:a5:ad:
         dc:98:4f:d4:e0:80:bb:37:e6:93:ae:d1:60:20:de:d3:4a:50:
         9c:12:94:d2:62:7b:3a:c5:b5:94:73:e7:d1:f9:b7:fa:ed:f2:
         03:5d:3c:c0:68:9d:3e:89:5f:8a:f3:52:68:1e:42:1c:f2:5d:
         bc:d5:6f:6b:e5:c1:73:e9:39:06:3f:9e:49:41:dd:54:1f:a4:
         10:64:2f:9e:8c:33:3b:4d:e3:2e:38:71:ed:1c:18:9c:05:28:
         62:e8:66:e7:9f:27:19:c4:07:82:18:a4:f5:ea:d7:69:7a:28:
         cf:eb:3a:01:0f:da:a0:ad:1a:74:1a:3e:ea:88:6d:73:d9:67:
         5b:b8:a4:ff:17:0c:90:79:94:f5:db:7c:d6:e8:7c:a8:14:9b:
         06:39:c6:c9:df:16:2e:11
-----BEGIN CERTIFICATE-----
MIIEfjCCAmagAwIBAgIRAMLiPlpoXysPWjjll6hApxMwDQYJKoZIhvcNAQELBQAw
OTELMAkGA1UEBhMCVVMxGTAXBgNVBAoMEEVkZ2V3b29kIENvbGxlZ2UxDzANBgNV
BAMMBlN1YiBDQTAeFw0xNjExMDgyMjAyMzhaFw0xNjEyMDgyMjAyMzhaMEUxCzAJ
BgNVBAYTAlVTMRkwFwYDVQQKDBBFZGdld29vZCBDb2xsZWdlMRswGQYDVQQDDBJP
Q1NQIFN1YiBSZXNwb25kZXIwggEiMA0GCSqGSIb3DQEBAQUAA4IBDwAwggEKAoIB
AQDHJJsL6MwR3MubN5MeMjXLs6dHsHMzsOLWzA5loLF856g9DFvrARBit4x/oROx
wB5LRTz5IOR1LOamp2nTTOKq3mUkjnY+9KnfaI6BrACbG+HnQC0e3E4q0TvSRUAD
pi7gR84zQ80wPZa7+YwxN/Lzp/U1MKwh+gziWG8U5/AyvCIPe+jQ5SSFcn545maO
f/Clrn+rBepB1xj2ppsJiABf3499xrkPajF4rVLvJHK4uYcyX58Y9Rs0QXuXB33H
+f9iNJBEIiH2scuPvm1gcEJcSzzSgkPaV12jrfWyO7FR6ryTzD2zOKa2bu8Fb86A
HsRex6yE6B32D6ttKXXGaGmLAgMBAAGjdTBzMB8GA1UdIwQYMBaAFFt9m68oS7IJ
2qTsiGx4dINcwOL6MAwGA1UdEwEB/wQCMAAwEwYDVR0lBAwwCgYIKwYBBQUHAwkw
DgYDVR0PAQH/BAQDAgeAMB0GA1UdDgQWBBRXynhwPffLWNgA7CR++6hBlu/eHzAN
BgkqhkiG9w0BAQsFAAOCAgEAj//FSkmOBOgbBSvrPiCavfF+uxPXPDjOsOTvAW+A
VEEVYiHIN622e2cc/q0UpBBaqs9xVtfa4xv7ZLGs7QtU6TWna4qGMNgBoCm1Oiz3
etHeZbfceAQsKBGu+N5XFuJYZ7BeqmZyZIXu0ydtK64cJpZQKxyNmIsM06eJBKP+
DIqIlyjarLqND1S99L6fz4btHWq+uK2dewZZfj+FraKUS0q3OSKTX9M+8auDYXU2
MlP8wOmkJkrcE3YmqeE9BeVPBniSMU78TfGJP5Gt1IeuNKahN0MhUr9TOpmljayO
CD3DiDw2OC6+mvtxOmYy1UEocrxBMTOLLzU5s1zQRFIddT7Lv1KSKQUF1FTHGLiK
ROLj5slMnIbZx+pAelmnuiWq8Y7Pc9sTQWCy7Ld62oqDy4bIrRHPaqUGTIkVgcfn
s6Wc22VgYaxNiOUd15KpIpGSrc1IBRlTyv6gxuFvghTRo9gi9vLipqWt3JhP1OCA
uzfmk67RYCDe00pQnBKU0mJ7OsW1lHPn0fm3+u3yA108wGidPolfivNSaB5CHPJd
vNVva+XBc+k5Bj+eSUHdVB+kEGQvnowzO03jLjhx7RwYnAUoYuhm558nGcQHghik
9erXaXooz+s6AQ/aoK0adBo+6ohtc9lnW7ik/xcMkHmU9dt81uh8qBSbBjnGyd8W
LhE=
-----END CERTIFICATE-----
