Certificate:
    Data:
        Version: 3 (0x2)
        Serial Number:
            c2:e2:3e:5a:68:5f:2b:0f:5a:38:e5:97:a8:40:a7:14
    Signature Algorithm: sha256WithRSAEncryption
        Issuer: C=US, O=Edgewood College, CN=Sub CA
        Validity
            Not Before: Nov  8 22:43:32 2016 GMT
            Not After : Nov  8 22:43:32 2017 GMT
        Subject: C=US, ST=WI, O=Edgewood College, OU=CIS, CN=Xianping Wang/emailAddress=xiawang@edgewood.edu
        Subject Public Key Info:
            Public Key Algorithm: rsaEncryption
                Public-Key: (2048 bit)
                Modulus:
                    00:9f:bf:30:5e:52:4f:ba:4a:be:a1:f4:0b:54:a9:
                    b9:cc:fa:3d:a5:24:2d:7e:8c:d4:41:04:61:d9:1a:
                    1b:91:00:42:00:9a:d9:d9:72:db:6f:a9:dc:cd:a2:
                    d9:66:3e:06:3b:f5:bc:89:d8:af:4e:88:db:a9:0b:
                    55:58:d8:00:bf:fb:c0:7c:a4:c9:54:8c:a2:01:0d:
                    c6:f1:a3:f8:ac:e5:33:a2:c6:78:5f:bd:24:66:e8:
                    1f:08:d8:06:23:e5:7d:3a:8f:2a:11:3d:9c:b4:9f:
                    ae:fc:79:c7:78:cf:95:73:de:5a:45:e8:0f:7a:29:
                    00:f8:c5:5f:5f:35:6c:ce:1a:63:41:ac:88:43:d6:
                    17:26:6d:fc:8a:03:a9:94:3e:7d:cc:14:40:29:39:
                    fd:d9:9b:c4:f2:c2:3a:79:74:b6:b3:fd:02:8d:f0:
                    84:c1:82:8e:c1:7d:5e:54:53:68:fa:be:39:66:b0:
                    da:8b:bb:73:2a:ee:70:2c:84:44:c1:8a:f7:65:9b:
                    30:c8:b6:a2:3f:03:76:d2:15:7c:bc:9a:ba:4c:93:
                    79:1c:4a:1f:7f:1e:ec:76:03:e0:19:2e:5e:08:71:
                    7f:60:11:9d:90:c6:1d:fe:7c:92:ac:2e:e2:ea:fe:
                    de:3b:c7:ff:9b:4b:61:6a:39:e9:b1:63:d2:50:cb:
                    84:af
                Exponent: 65537 (0x10001)
        X509v3 extensions:
            Authority Information Access: 
                CA Issuers - URI:http://sub_ca.edgewood.edu/sub_ca.crt
                OCSP - URI:http://ocsp.sub_ca.edgewood.edu:9081

            X509v3 Authority Key Identifier: 
                keyid:5B:7D:9B:AF:28:4B:B2:09:DA:A4:EC:88:6C:78:74:83:5C:C0:E2:FA

            X509v3 Basic Constraints: critical
                CA:FALSE
            X509v3 CRL Distribution Points: 

                Full Name:
                  URI:http://sub_ca.edgewood.edu/sub_ca.crl

            X509v3 Extended Key Usage: 
                TLS Web Client Authentication
            X509v3 Key Usage: critical
                Digital Signature
            X509v3 Subject Key Identifier: 
                E2:26:69:AF:A8:A7:F9:10:C3:91:B6:65:79:C8:3F:2A:A1:3B:57:55
    Signature Algorithm: sha256WithRSAEncryption
         32:9f:e8:af:06:1c:df:68:63:71:b3:16:2e:6c:0c:c4:4a:23:
         90:b8:df:3b:48:ea:00:0a:07:9e:b1:0a:68:6e:ce:e5:b0:78:
         60:42:cf:5d:97:6b:23:4b:91:67:f3:21:b1:0a:87:c0:2a:88:
         15:51:d0:99:34:9f:8e:2b:fb:a1:0f:54:61:73:e4:59:11:58:
         36:2a:e5:56:f9:7f:e5:e2:53:33:4c:32:cc:1e:4a:69:7e:0f:
         cd:50:1b:cb:f4:06:3f:1a:3e:22:3d:32:9a:53:5e:98:74:b3:
         37:cc:84:ee:d6:51:2a:f4:6f:fc:0c:e4:86:85:7f:3a:6d:03:
         0e:0e:43:c3:9d:09:8e:50:7b:35:42:fc:2a:b4:ee:00:c7:c8:
         7a:4d:79:3a:ae:f1:1f:1f:a7:b5:16:68:68:6a:50:f0:b3:af:
         89:29:26:cd:55:33:1a:56:1e:9a:c4:99:90:0e:a5:8c:9f:60:
         ea:5b:6f:b3:70:bb:69:cc:e1:0e:50:f0:95:e1:a1:6a:41:22:
         8c:6c:0f:10:6a:f3:8f:b8:b4:d9:a4:97:f4:99:4c:40:fd:a4:
         b8:ec:d6:4a:9d:74:40:ad:d9:0f:56:0e:ff:ea:35:cb:31:8e:
         58:83:82:28:f0:d7:f4:f7:83:ce:ed:c8:93:8c:10:ac:a4:b5:
         e3:68:e9:c9:c9:3d:b5:b9:2f:53:76:76:d7:bd:7c:06:eb:b3:
         f0:72:f5:86:39:d6:47:3a:42:07:00:bb:58:b4:ca:52:92:9f:
         90:5f:04:c5:28:a6:e1:26:61:61:23:71:4e:83:98:95:7c:4e:
         1b:a6:0b:b0:33:1f:f8:20:03:90:ec:cf:77:16:af:ef:ae:e0:
         91:b4:1d:43:9d:a2:91:1b:c2:1d:3b:d4:eb:d3:ac:13:30:ca:
         47:1d:ec:24:27:97:9b:c7:4b:09:99:e9:3e:e9:7e:d9:93:aa:
         05:ce:37:00:c7:67:a0:59:37:b4:19:a5:ac:a1:fb:ef:19:01:
         7a:67:69:f0:27:86:ad:58:3f:81:d0:11:a7:bb:c2:a8:75:8c:
         8c:ed:4b:76:00:ca:74:f8:60:36:5c:05:ce:12:72:3d:e0:fa:
         2a:b8:a0:ec:83:3d:5c:23:69:b4:d6:36:d4:8b:12:bf:61:b3:
         7e:99:ec:e9:4a:62:db:e3:5a:eb:fb:27:a2:75:be:e9:db:c0:
         3d:50:bb:88:d0:4b:bb:95:bd:93:52:e4:49:d1:f4:3a:22:0f:
         24:de:35:13:e6:76:e6:b9:42:cc:8d:b8:bd:9d:69:06:5d:56:
         fe:05:ce:a1:0a:35:1f:85:4a:e2:23:bb:e1:20:2b:ab:b8:a9:
         e5:c7:29:5f:95:71:15:2e
-----BEGIN CERTIFICATE-----
MIIFazCCA1OgAwIBAgIRAMLiPlpoXysPWjjll6hApxQwDQYJKoZIhvcNAQELBQAw
OTELMAkGA1UEBhMCVVMxGTAXBgNVBAoMEEVkZ2V3b29kIENvbGxlZ2UxDzANBgNV
BAMMBlN1YiBDQTAeFw0xNjExMDgyMjQzMzJaFw0xNzExMDgyMjQzMzJaMIGAMQsw
CQYDVQQGEwJVUzELMAkGA1UECAwCV0kxGTAXBgNVBAoMEEVkZ2V3b29kIENvbGxl
Z2UxDDAKBgNVBAsMA0NJUzEWMBQGA1UEAwwNWGlhbnBpbmcgV2FuZzEjMCEGCSqG
SIb3DQEJARYUeGlhd2FuZ0BlZGdld29vZC5lZHUwggEiMA0GCSqGSIb3DQEBAQUA
A4IBDwAwggEKAoIBAQCfvzBeUk+6Sr6h9AtUqbnM+j2lJC1+jNRBBGHZGhuRAEIA
mtnZcttvqdzNotlmPgY79byJ2K9OiNupC1VY2AC/+8B8pMlUjKIBDcbxo/is5TOi
xnhfvSRm6B8I2AYj5X06jyoRPZy0n678ecd4z5Vz3lpF6A96KQD4xV9fNWzOGmNB
rIhD1hcmbfyKA6mUPn3MFEApOf3Zm8Tywjp5dLaz/QKN8ITBgo7BfV5UU2j6vjlm
sNqLu3Mq7nAshETBivdlmzDItqI/A3bSFXy8mrpMk3kcSh9/Hux2A+AZLl4IcX9g
EZ2Qxh3+fJKsLuLq/t47x/+bS2FqOemxY9JQy4SvAgMBAAGjggEkMIIBIDBzBggr
BgEFBQcBAQRnMGUwMQYIKwYBBQUHMAKGJWh0dHA6Ly9zdWJfY2EuZWRnZXdvb2Qu
ZWR1L3N1Yl9jYS5jcnQwMAYIKwYBBQUHMAGGJGh0dHA6Ly9vY3NwLnN1Yl9jYS5l
ZGdld29vZC5lZHU6OTA4MTAfBgNVHSMEGDAWgBRbfZuvKEuyCdqk7IhseHSDXMDi
+jAMBgNVHRMBAf8EAjAAMDYGA1UdHwQvMC0wK6ApoCeGJWh0dHA6Ly9zdWJfY2Eu
ZWRnZXdvb2QuZWR1L3N1Yl9jYS5jcmwwEwYDVR0lBAwwCgYIKwYBBQUHAwIwDgYD
VR0PAQH/BAQDAgeAMB0GA1UdDgQWBBTiJmmvqKf5EMORtmV5yD8qoTtXVTANBgkq
hkiG9w0BAQsFAAOCAgEAMp/orwYc32hjcbMWLmwMxEojkLjfO0jqAAoHnrEKaG7O
5bB4YELPXZdrI0uRZ/MhsQqHwCqIFVHQmTSfjiv7oQ9UYXPkWRFYNirlVvl/5eJT
M0wyzB5KaX4PzVAby/QGPxo+Ij0ymlNemHSzN8yE7tZRKvRv/AzkhoV/Om0DDg5D
w50JjlB7NUL8KrTuAMfIek15Oq7xHx+ntRZoaGpQ8LOviSkmzVUzGlYemsSZkA6l
jJ9g6ltvs3C7aczhDlDwleGhakEijGwPEGrzj7i02aSX9JlMQP2kuOzWSp10QK3Z
D1YO/+o1yzGOWIOCKPDX9PeDzu3Ik4wQrKS142jpyck9tbkvU3Z21718Buuz8HL1
hjnWRzpCBwC7WLTKUpKfkF8ExSim4SZhYSNxToOYlXxOG6YLsDMf+CADkOzPdxav
767gkbQdQ52ikRvCHTvU69OsEzDKRx3sJCeXm8dLCZnpPul+2ZOqBc43AMdnoFk3
tBmlrKH77xkBemdp8CeGrVg/gdARp7vCqHWMjO1LdgDKdPhgNlwFzhJyPeD6Krig
7IM9XCNptNY21IsSv2Gzfpns6Upi2+Na6/snonW+6dvAPVC7iNBLu5W9k1LkSdH0
OiIPJN41E+Z25rlCzI24vZ1pBl1W/gXOoQo1H4VK4iO74SArq7ip5ccpX5VxFS4=
-----END CERTIFICATE-----
